	.section	__TEXT,__text,regular,pure_instructions
	.section	__TEXT,__text,regular,pure_instructions
	.globl	__Z9printFunci
	.align	4, 0x90
__Z9printFunci:                         ## @_Z9printFunci
Lfunc_begin0:
	.loc	1 6 0                   ## transform.cpp:6:0
	.cfi_startproc
## BB#0:
	push	rbp
Ltmp2:
	.cfi_def_cfa_offset 16
Ltmp3:
	.cfi_offset rbp, -16
	mov	rbp, rsp
Ltmp4:
	.cfi_def_cfa_register rbp
	##DEBUG_VALUE: printFunc:i <- EDI
	mov	eax, edi
Ltmp5:
	##DEBUG_VALUE: printFunc:i <- EAX
	.loc	1 7 0 prologue_end      ## transform.cpp:7:0
	mov	rdi, qword ptr [rip + __ZNSt3__14coutE@GOTPCREL]
	mov	esi, eax
Ltmp6:
	##DEBUG_VALUE: printFunc:i <- ESI
	call	__ZNSt3__113basic_ostreamIcNS_11char_traitsIcEEElsEi
Ltmp7:
	##DEBUG_VALUE: length:__s <- RSI
	##DEBUG_VALUE: operator<<<std::__1::char_traits<char> >:__os <- RAX
	.loc	19 882 0                ## /Applications/Xcode.app/Contents/Developer/Toolchains/XcodeDefault.xctoolchain/usr/bin/../include/c++/v1/ostream:882:0
	lea	rsi, qword ptr [rip + L_.str]
Ltmp8:
	mov	edx, 1
	mov	rdi, rax
	pop	rbp
	jmp	__ZNSt3__124__put_character_sequenceIcNS_11char_traitsIcEEEERNS_13basic_ostreamIT_T0_EES7_PKS4_m ## TAILCALL
Ltmp9:
Lfunc_end0:
	.cfi_endproc

	.globl	__Z6Doublei
	.align	4, 0x90
__Z6Doublei:                            ## @_Z6Doublei
Lfunc_begin1:
	.loc	1 10 0                  ## transform.cpp:10:0
	.cfi_startproc
## BB#0:
	push	rbp
Ltmp12:
	.cfi_def_cfa_offset 16
Ltmp13:
	.cfi_offset rbp, -16
	mov	rbp, rsp
Ltmp14:
	.cfi_def_cfa_register rbp
	##DEBUG_VALUE: Double:i <- EDI
                                        ## kill: EDI<def> EDI<kill> RDI<def>
Ltmp15:
	.loc	1 10 0 prologue_end     ## transform.cpp:10:0
	lea	eax, dword ptr [rdi + rdi]
	pop	rbp
	ret
Ltmp16:
Lfunc_end1:
	.cfi_endproc

	.globl	_main
	.align	4, 0x90
_main:                                  ## @main
Lfunc_begin2:
	.loc	1 13 0                  ## transform.cpp:13:0
	.cfi_startproc
	.cfi_personality 155, ___gxx_personality_v0
Leh_func_begin2:
	.cfi_lsda 16, Lexception2
## BB#0:
	push	rbp
Ltmp46:
	.cfi_def_cfa_offset 16
Ltmp47:
	.cfi_offset rbp, -16
	mov	rbp, rsp
Ltmp48:
	.cfi_def_cfa_register rbp
	push	r15
	push	r14
	push	r13
	push	r12
	push	rbx
	sub	rsp, 56
Ltmp49:
	.cfi_offset rbx, -56
Ltmp50:
	.cfi_offset r12, -48
Ltmp51:
	.cfi_offset r13, -40
Ltmp52:
	.cfi_offset r14, -32
Ltmp53:
	.cfi_offset r15, -24
	lea	r15, qword ptr [rbp - 64]
Ltmp54:
	##DEBUG_VALUE: __link_nodes:__p <- R15
	##DEBUG_VALUE: __link_nodes:__p <- R15
	##DEBUG_VALUE: __link_nodes:__p <- R15
	##DEBUG_VALUE: __link_nodes:__p <- R15
	##DEBUG_VALUE: __link_nodes:__p <- R15
	##DEBUG_VALUE: __list_iterator:__p <- R15
	##DEBUG_VALUE: __list_iterator:__p <- R15
	##DEBUG_VALUE: __list_iterator:__p <- R15
	##DEBUG_VALUE: __list_iterator:__p <- R15
	##DEBUG_VALUE: __l <- R15
	##DEBUG_VALUE: list:this <- R15
	.loc	14 218 0 prologue_end   ## /Applications/Xcode.app/Contents/Developer/Toolchains/XcodeDefault.xctoolchain/usr/bin/../include/c++/v1/list:218:0
	mov	qword ptr [rbp - 64], r15
	.loc	14 219 0                ## /Applications/Xcode.app/Contents/Developer/Toolchains/XcodeDefault.xctoolchain/usr/bin/../include/c++/v1/list:219:0
	mov	qword ptr [rbp - 56], r15
Ltmp55:
	##DEBUG_VALUE: forward<unsigned long>:__t <- 0
	##DEBUG_VALUE: __libcpp_compressed_pair_imp:__t1 <- 0
	##DEBUG_VALUE: forward<unsigned long>:__t <- 0
	##DEBUG_VALUE: __compressed_pair:__t1 <- 0
	##DEBUG_VALUE: __compressed_pair:__t1 <- 0
	.loc	9 2134 20               ## /Applications/Xcode.app/Contents/Developer/Toolchains/XcodeDefault.xctoolchain/usr/bin/../include/c++/v1/memory:2134:20
	mov	qword ptr [rbp - 48], 0
Ltmp56:
	##DEBUG_VALUE: allocate:__n <- 1
	##DEBUG_VALUE: allocate:__n <- 1
	##DEBUG_VALUE: push_back:__x <- 2
	##DEBUG_VALUE: construct<int, int>:__a0 <- 2
Ltmp17:
	mov	edi, 24
	call	__Znwm
Ltmp18:
Ltmp57:
## BB#1:
	##DEBUG_VALUE: __link_nodes:__p <- R15
	##DEBUG_VALUE: construct<int, int>:__a0 <- 2
	##DEBUG_VALUE: push_back:__x <- 2
	##DEBUG_VALUE: release:__t <- RAX
	##DEBUG_VALUE: __link_nodes:__l <- RAX
	##DEBUG_VALUE: __link_nodes:__f <- RAX
	##DEBUG_VALUE: forward<std::__1::__list_node<int, void *> *>:__t <- RAX
	##DEBUG_VALUE: __libcpp_compressed_pair_imp:__t1 <- RAX
	##DEBUG_VALUE: forward<std::__1::__list_node<int, void *> *>:__t <- RAX
	##DEBUG_VALUE: __compressed_pair:__t1 <- RAX
	##DEBUG_VALUE: __compressed_pair:__t1 <- RAX
	##DEBUG_VALUE: move<std::__1::__list_node<int, void *> *>:__t <- RAX
	##DEBUG_VALUE: unique_ptr:__p <- RAX
	##DEBUG_VALUE: __allocator_destructor:__s <- 1
	##DEBUG_VALUE: __allocator_destructor:__s <- 1
	##DEBUG_VALUE: unique_ptr:__p <- RAX
	.loc	9 1462 0                ## /Applications/Xcode.app/Contents/Developer/Toolchains/XcodeDefault.xctoolchain/usr/bin/../include/c++/v1/memory:1462:0
	mov	dword ptr [rax + 16], 2
Ltmp58:
	.loc	14 1078 0               ## /Applications/Xcode.app/Contents/Developer/Toolchains/XcodeDefault.xctoolchain/usr/bin/../include/c++/v1/list:1078:0
	mov	rcx, qword ptr [rbp - 64]
	mov	qword ptr [rcx + 8], rax
	.loc	14 1079 0               ## /Applications/Xcode.app/Contents/Developer/Toolchains/XcodeDefault.xctoolchain/usr/bin/../include/c++/v1/list:1079:0
	mov	qword ptr [rax], rcx
	.loc	14 1080 0               ## /Applications/Xcode.app/Contents/Developer/Toolchains/XcodeDefault.xctoolchain/usr/bin/../include/c++/v1/list:1080:0
	mov	qword ptr [rbp - 64], rax
	.loc	14 1081 0               ## /Applications/Xcode.app/Contents/Developer/Toolchains/XcodeDefault.xctoolchain/usr/bin/../include/c++/v1/list:1081:0
	mov	qword ptr [rax + 8], r15
Ltmp59:
	.loc	14 1520 0               ## /Applications/Xcode.app/Contents/Developer/Toolchains/XcodeDefault.xctoolchain/usr/bin/../include/c++/v1/list:1520:0
	inc	qword ptr [rbp - 48]
Ltmp60:
	##DEBUG_VALUE: allocate:__n <- 1
	##DEBUG_VALUE: allocate:__n <- 1
	##DEBUG_VALUE: push_back:__x <- 4
	##DEBUG_VALUE: construct<int, int>:__a0 <- 4
Ltmp19:
	mov	edi, 24
	call	__Znwm
Ltmp61:
Ltmp20:
Ltmp62:
## BB#2:
	##DEBUG_VALUE: construct<int, int>:__a0 <- 4
	##DEBUG_VALUE: push_back:__x <- 4
	##DEBUG_VALUE: release:__t <- RAX
	##DEBUG_VALUE: __link_nodes:__l <- RAX
	##DEBUG_VALUE: __link_nodes:__f <- RAX
	##DEBUG_VALUE: forward<std::__1::__list_node<int, void *> *>:__t <- RAX
	##DEBUG_VALUE: __libcpp_compressed_pair_imp:__t1 <- RAX
	##DEBUG_VALUE: forward<std::__1::__list_node<int, void *> *>:__t <- RAX
	##DEBUG_VALUE: __compressed_pair:__t1 <- RAX
	##DEBUG_VALUE: __compressed_pair:__t1 <- RAX
	##DEBUG_VALUE: move<std::__1::__list_node<int, void *> *>:__t <- RAX
	##DEBUG_VALUE: unique_ptr:__p <- RAX
	##DEBUG_VALUE: __allocator_destructor:__s <- 1
	##DEBUG_VALUE: __allocator_destructor:__s <- 1
	##DEBUG_VALUE: unique_ptr:__p <- RAX
	.loc	9 1462 0                ## /Applications/Xcode.app/Contents/Developer/Toolchains/XcodeDefault.xctoolchain/usr/bin/../include/c++/v1/memory:1462:0
	mov	dword ptr [rax + 16], 4
Ltmp63:
	.loc	14 1078 0               ## /Applications/Xcode.app/Contents/Developer/Toolchains/XcodeDefault.xctoolchain/usr/bin/../include/c++/v1/list:1078:0
	mov	rcx, qword ptr [rbp - 64]
	mov	qword ptr [rcx + 8], rax
	.loc	14 1079 0               ## /Applications/Xcode.app/Contents/Developer/Toolchains/XcodeDefault.xctoolchain/usr/bin/../include/c++/v1/list:1079:0
	mov	qword ptr [rax], rcx
	.loc	14 1080 0               ## /Applications/Xcode.app/Contents/Developer/Toolchains/XcodeDefault.xctoolchain/usr/bin/../include/c++/v1/list:1080:0
	mov	qword ptr [rbp - 64], rax
	.loc	14 1081 0               ## /Applications/Xcode.app/Contents/Developer/Toolchains/XcodeDefault.xctoolchain/usr/bin/../include/c++/v1/list:1081:0
	mov	qword ptr [rax + 8], r15
Ltmp64:
	.loc	14 1520 0               ## /Applications/Xcode.app/Contents/Developer/Toolchains/XcodeDefault.xctoolchain/usr/bin/../include/c++/v1/list:1520:0
	inc	qword ptr [rbp - 48]
Ltmp65:
	##DEBUG_VALUE: allocate:__n <- 1
	##DEBUG_VALUE: allocate:__n <- 1
	##DEBUG_VALUE: push_back:__x <- 5
	##DEBUG_VALUE: construct<int, int>:__a0 <- 5
Ltmp21:
	mov	edi, 24
	call	__Znwm
Ltmp66:
Ltmp22:
Ltmp67:
## BB#3:
	##DEBUG_VALUE: construct<int, int>:__a0 <- 5
	##DEBUG_VALUE: push_back:__x <- 5
	##DEBUG_VALUE: release:__t <- RAX
	##DEBUG_VALUE: __link_nodes:__l <- RAX
	##DEBUG_VALUE: __link_nodes:__f <- RAX
	##DEBUG_VALUE: forward<std::__1::__list_node<int, void *> *>:__t <- RAX
	##DEBUG_VALUE: __libcpp_compressed_pair_imp:__t1 <- RAX
	##DEBUG_VALUE: forward<std::__1::__list_node<int, void *> *>:__t <- RAX
	##DEBUG_VALUE: __compressed_pair:__t1 <- RAX
	##DEBUG_VALUE: __compressed_pair:__t1 <- RAX
	##DEBUG_VALUE: move<std::__1::__list_node<int, void *> *>:__t <- RAX
	##DEBUG_VALUE: unique_ptr:__p <- RAX
	##DEBUG_VALUE: __allocator_destructor:__s <- 1
	##DEBUG_VALUE: __allocator_destructor:__s <- 1
	##DEBUG_VALUE: unique_ptr:__p <- RAX
	.loc	9 1462 0                ## /Applications/Xcode.app/Contents/Developer/Toolchains/XcodeDefault.xctoolchain/usr/bin/../include/c++/v1/memory:1462:0
	mov	dword ptr [rax + 16], 5
Ltmp68:
	.loc	14 1078 0               ## /Applications/Xcode.app/Contents/Developer/Toolchains/XcodeDefault.xctoolchain/usr/bin/../include/c++/v1/list:1078:0
	mov	rcx, qword ptr [rbp - 64]
	mov	qword ptr [rcx + 8], rax
	.loc	14 1079 0               ## /Applications/Xcode.app/Contents/Developer/Toolchains/XcodeDefault.xctoolchain/usr/bin/../include/c++/v1/list:1079:0
	mov	qword ptr [rax], rcx
	.loc	14 1080 0               ## /Applications/Xcode.app/Contents/Developer/Toolchains/XcodeDefault.xctoolchain/usr/bin/../include/c++/v1/list:1080:0
	mov	qword ptr [rbp - 64], rax
	.loc	14 1081 0               ## /Applications/Xcode.app/Contents/Developer/Toolchains/XcodeDefault.xctoolchain/usr/bin/../include/c++/v1/list:1081:0
	mov	qword ptr [rax + 8], r15
Ltmp69:
	.loc	14 1520 0               ## /Applications/Xcode.app/Contents/Developer/Toolchains/XcodeDefault.xctoolchain/usr/bin/../include/c++/v1/list:1520:0
	inc	qword ptr [rbp - 48]
Ltmp70:
	##DEBUG_VALUE: allocate:__n <- 1
	##DEBUG_VALUE: allocate:__n <- 1
	##DEBUG_VALUE: push_back:__x <- 6
	##DEBUG_VALUE: construct<int, int>:__a0 <- 6
Ltmp23:
	mov	edi, 24
	call	__Znwm
Ltmp71:
Ltmp24:
Ltmp72:
## BB#4:
	##DEBUG_VALUE: construct<int, int>:__a0 <- 6
	##DEBUG_VALUE: push_back:__x <- 6
	##DEBUG_VALUE: release:__t <- RAX
	##DEBUG_VALUE: __link_nodes:__l <- RAX
	##DEBUG_VALUE: __link_nodes:__f <- RAX
	##DEBUG_VALUE: forward<std::__1::__list_node<int, void *> *>:__t <- RAX
	##DEBUG_VALUE: __libcpp_compressed_pair_imp:__t1 <- RAX
	##DEBUG_VALUE: forward<std::__1::__list_node<int, void *> *>:__t <- RAX
	##DEBUG_VALUE: __compressed_pair:__t1 <- RAX
	##DEBUG_VALUE: __compressed_pair:__t1 <- RAX
	##DEBUG_VALUE: move<std::__1::__list_node<int, void *> *>:__t <- RAX
	##DEBUG_VALUE: unique_ptr:__p <- RAX
	##DEBUG_VALUE: __allocator_destructor:__s <- 1
	##DEBUG_VALUE: __allocator_destructor:__s <- 1
	##DEBUG_VALUE: unique_ptr:__p <- RAX
	.loc	9 1462 0                ## /Applications/Xcode.app/Contents/Developer/Toolchains/XcodeDefault.xctoolchain/usr/bin/../include/c++/v1/memory:1462:0
	mov	dword ptr [rax + 16], 6
Ltmp73:
	.loc	14 1078 0               ## /Applications/Xcode.app/Contents/Developer/Toolchains/XcodeDefault.xctoolchain/usr/bin/../include/c++/v1/list:1078:0
	mov	rcx, qword ptr [rbp - 64]
	mov	qword ptr [rcx + 8], rax
	.loc	14 1079 0               ## /Applications/Xcode.app/Contents/Developer/Toolchains/XcodeDefault.xctoolchain/usr/bin/../include/c++/v1/list:1079:0
	mov	qword ptr [rax], rcx
	.loc	14 1080 0               ## /Applications/Xcode.app/Contents/Developer/Toolchains/XcodeDefault.xctoolchain/usr/bin/../include/c++/v1/list:1080:0
	mov	qword ptr [rbp - 64], rax
	.loc	14 1081 0               ## /Applications/Xcode.app/Contents/Developer/Toolchains/XcodeDefault.xctoolchain/usr/bin/../include/c++/v1/list:1081:0
	mov	qword ptr [rax + 8], r15
Ltmp74:
	.loc	14 1520 0               ## /Applications/Xcode.app/Contents/Developer/Toolchains/XcodeDefault.xctoolchain/usr/bin/../include/c++/v1/list:1520:0
	inc	qword ptr [rbp - 48]
Ltmp75:
	##DEBUG_VALUE: allocate:__n <- 1
	##DEBUG_VALUE: allocate:__n <- 1
	##DEBUG_VALUE: push_back:__x <- 2
	##DEBUG_VALUE: construct<int, int>:__a0 <- 2
Ltmp25:
	mov	edi, 24
	call	__Znwm
Ltmp76:
Ltmp26:
Ltmp77:
## BB#5:
	##DEBUG_VALUE: construct<int, int>:__a0 <- 2
	##DEBUG_VALUE: push_back:__x <- 2
	##DEBUG_VALUE: release:__t <- RAX
	##DEBUG_VALUE: __link_nodes:__l <- RAX
	##DEBUG_VALUE: __link_nodes:__f <- RAX
	##DEBUG_VALUE: forward<std::__1::__list_node<int, void *> *>:__t <- RAX
	##DEBUG_VALUE: __libcpp_compressed_pair_imp:__t1 <- RAX
	##DEBUG_VALUE: forward<std::__1::__list_node<int, void *> *>:__t <- RAX
	##DEBUG_VALUE: __compressed_pair:__t1 <- RAX
	##DEBUG_VALUE: __compressed_pair:__t1 <- RAX
	##DEBUG_VALUE: move<std::__1::__list_node<int, void *> *>:__t <- RAX
	##DEBUG_VALUE: unique_ptr:__p <- RAX
	##DEBUG_VALUE: __allocator_destructor:__s <- 1
	##DEBUG_VALUE: __allocator_destructor:__s <- 1
	##DEBUG_VALUE: unique_ptr:__p <- RAX
	.loc	9 1462 0                ## /Applications/Xcode.app/Contents/Developer/Toolchains/XcodeDefault.xctoolchain/usr/bin/../include/c++/v1/memory:1462:0
	mov	dword ptr [rax + 16], 2
Ltmp78:
	.loc	14 1078 0               ## /Applications/Xcode.app/Contents/Developer/Toolchains/XcodeDefault.xctoolchain/usr/bin/../include/c++/v1/list:1078:0
	mov	rcx, qword ptr [rbp - 64]
	mov	qword ptr [rcx + 8], rax
	.loc	14 1079 0               ## /Applications/Xcode.app/Contents/Developer/Toolchains/XcodeDefault.xctoolchain/usr/bin/../include/c++/v1/list:1079:0
	mov	qword ptr [rax], rcx
	.loc	14 1080 0               ## /Applications/Xcode.app/Contents/Developer/Toolchains/XcodeDefault.xctoolchain/usr/bin/../include/c++/v1/list:1080:0
	mov	qword ptr [rbp - 64], rax
	.loc	14 1081 0               ## /Applications/Xcode.app/Contents/Developer/Toolchains/XcodeDefault.xctoolchain/usr/bin/../include/c++/v1/list:1081:0
	mov	qword ptr [rax + 8], r15
Ltmp79:
	.loc	14 1520 0               ## /Applications/Xcode.app/Contents/Developer/Toolchains/XcodeDefault.xctoolchain/usr/bin/../include/c++/v1/list:1520:0
	mov	rsi, qword ptr [rbp - 48]
	inc	rsi
	mov	qword ptr [rbp - 48], rsi
	lea	rbx, qword ptr [rbp - 88]
Ltmp80:
	##DEBUG_VALUE: __list_iterator:__p <- RBX
	##DEBUG_VALUE: __list_iterator:__p <- RBX
	##DEBUG_VALUE: main:secondList <- [RBP+-88]
	##DEBUG_VALUE: list:this <- RBX
	##DEBUG_VALUE: __l <- RBX
	.loc	14 218 0                ## /Applications/Xcode.app/Contents/Developer/Toolchains/XcodeDefault.xctoolchain/usr/bin/../include/c++/v1/list:218:0
	mov	qword ptr [rbp - 88], rbx
	.loc	14 219 0                ## /Applications/Xcode.app/Contents/Developer/Toolchains/XcodeDefault.xctoolchain/usr/bin/../include/c++/v1/list:219:0
	mov	qword ptr [rbp - 80], rbx
Ltmp81:
	.loc	9 2134 20               ## /Applications/Xcode.app/Contents/Developer/Toolchains/XcodeDefault.xctoolchain/usr/bin/../include/c++/v1/memory:2134:20
	mov	qword ptr [rbp - 72], 0
Ltmp82:
	.loc	1 23 0                  ## transform.cpp:23:0
Ltmp28:
	mov	rdi, rbx
	call	__ZNSt3__14listIiNS_9allocatorIiEEE6resizeEm
Ltmp29:
Ltmp83:
	##DEBUG_VALUE: forward<unsigned long>:__t <- 0
	##DEBUG_VALUE: __libcpp_compressed_pair_imp:__t1 <- 0
	##DEBUG_VALUE: forward<unsigned long>:__t <- 0
	##DEBUG_VALUE: __compressed_pair:__t1 <- 0
	##DEBUG_VALUE: __compressed_pair:__t1 <- 0
## BB#6:
	##DEBUG_VALUE: main:secondList <- [RBP+-88]
	.loc	14 573 0                ## /Applications/Xcode.app/Contents/Developer/Toolchains/XcodeDefault.xctoolchain/usr/bin/../include/c++/v1/list:573:0
	mov	r13, qword ptr [rbp - 56]
Ltmp84:
	##DEBUG_VALUE: __list_iterator:__p <- R13
	##DEBUG_VALUE: __list_iterator:__p <- R13
	.loc	14 364 0                ## /Applications/Xcode.app/Contents/Developer/Toolchains/XcodeDefault.xctoolchain/usr/bin/../include/c++/v1/list:364:0
	cmp	r13, r15
	je	LBB2_14
Ltmp85:
## BB#7:
	##DEBUG_VALUE: main:secondList <- [RBP+-88]
	mov	r12, qword ptr [rip + __ZNSt3__14coutE@GOTPCREL]
	lea	r14, qword ptr [rip + L_.str]
	.align	4, 0x90
LBB2_8:                                 ## %.lr.ph.i25
                                        ## =>This Inner Loop Header: Depth=1
	##DEBUG_VALUE: main:secondList <- [RBP+-88]
	.loc	15 834 0                ## /Applications/Xcode.app/Contents/Developer/Toolchains/XcodeDefault.xctoolchain/usr/bin/../include/c++/v1/algorithm:834:0
	mov	esi, dword ptr [r13 + 16]
Ltmp86:
	##DEBUG_VALUE: printFunc:i <- ESI
Ltmp30:
	mov	rdi, r12
	call	__ZNSt3__113basic_ostreamIcNS_11char_traitsIcEEElsEi
Ltmp31:
Ltmp87:
## BB#9:                                ## %.noexc28
                                        ##   in Loop: Header=BB2_8 Depth=1
Ltmp32:
	##DEBUG_VALUE: main:secondList <- [RBP+-88]
Ltmp88:
	##DEBUG_VALUE: length:__s <- R14
	##DEBUG_VALUE: operator<<<std::__1::char_traits<char> >:__os <- RAX
	mov	edx, 1
	mov	rdi, rax
	mov	rsi, r14
	call	__ZNSt3__124__put_character_sequenceIcNS_11char_traitsIcEEEERNS_13basic_ostreamIT_T0_EES7_PKS4_m
Ltmp89:
Ltmp33:
Ltmp90:
## BB#10:                               ## %.noexc26
                                        ##   in Loop: Header=BB2_8 Depth=1
	##DEBUG_VALUE: main:secondList <- [RBP+-88]
	.loc	14 338 0                ## /Applications/Xcode.app/Contents/Developer/Toolchains/XcodeDefault.xctoolchain/usr/bin/../include/c++/v1/list:338:0
	mov	r13, qword ptr [r13 + 8]
Ltmp91:
	.loc	15 833 0                ## /Applications/Xcode.app/Contents/Developer/Toolchains/XcodeDefault.xctoolchain/usr/bin/../include/c++/v1/algorithm:833:0
	cmp	r13, r15
	jne	LBB2_8
Ltmp92:
## BB#11:                               ## %_ZNSt3__18for_eachINS_15__list_iteratorIiPvEEPFviEEET0_T_S7_S6_.exit27
	##DEBUG_VALUE: main:secondList <- [RBP+-88]
	.loc	14 573 0                ## /Applications/Xcode.app/Contents/Developer/Toolchains/XcodeDefault.xctoolchain/usr/bin/../include/c++/v1/list:573:0
	mov	rax, qword ptr [rbp - 56]
Ltmp93:
	##DEBUG_VALUE: __list_iterator:__p <- RAX
	##DEBUG_VALUE: __list_iterator:__p <- RAX
	.loc	14 364 0                ## /Applications/Xcode.app/Contents/Developer/Toolchains/XcodeDefault.xctoolchain/usr/bin/../include/c++/v1/list:364:0
	cmp	rax, r15
	je	LBB2_14
Ltmp94:
## BB#12:                               ## %.lr.ph.i32.preheader
	##DEBUG_VALUE: main:secondList <- [RBP+-88]
	.loc	14 573 0                ## /Applications/Xcode.app/Contents/Developer/Toolchains/XcodeDefault.xctoolchain/usr/bin/../include/c++/v1/list:573:0
	mov	rcx, qword ptr [rbp - 80]
Ltmp95:
	##DEBUG_VALUE: __list_iterator:__p <- RCX
	##DEBUG_VALUE: __list_iterator:__p <- RCX
	.align	4, 0x90
LBB2_13:                                ## %.lr.ph.i32
                                        ## =>This Inner Loop Header: Depth=1
	##DEBUG_VALUE: main:secondList <- [RBP+-88]
	.loc	15 1925 0               ## /Applications/Xcode.app/Contents/Developer/Toolchains/XcodeDefault.xctoolchain/usr/bin/../include/c++/v1/algorithm:1925:0
	mov	edx, dword ptr [rax + 16]
Ltmp96:
	##DEBUG_VALUE: Double:i <- EDX
	.loc	1 10 0                  ## transform.cpp:10:0
	add	edx, edx
Ltmp97:
	.loc	15 1925 0               ## /Applications/Xcode.app/Contents/Developer/Toolchains/XcodeDefault.xctoolchain/usr/bin/../include/c++/v1/algorithm:1925:0
	mov	dword ptr [rcx + 16], edx
	.loc	14 338 0                ## /Applications/Xcode.app/Contents/Developer/Toolchains/XcodeDefault.xctoolchain/usr/bin/../include/c++/v1/list:338:0
Ltmp98:
	mov	rax, qword ptr [rax + 8]
	mov	rcx, qword ptr [rcx + 8]
Ltmp99:
	.loc	15 1924 0               ## /Applications/Xcode.app/Contents/Developer/Toolchains/XcodeDefault.xctoolchain/usr/bin/../include/c++/v1/algorithm:1924:0
	cmp	rax, r15
	jne	LBB2_13
Ltmp100:
LBB2_14:                                ## %_ZNSt3__19transformINS_15__list_iteratorIiPvEES3_PFiiEEET0_T_S7_S6_T1_.exit
Ltmp35:
	##DEBUG_VALUE: main:secondList <- [RBP+-88]
	mov	rdi, qword ptr [rip + __ZNSt3__14coutE@GOTPCREL]
Ltmp101:
	##DEBUG_VALUE: operator<<<std::__1::char_traits<char> >:__os <- RDI
	lea	rsi, qword ptr [rip + L_.str1]
Ltmp102:
	##DEBUG_VALUE: length:__s <- RSI
	mov	edx, 7
	call	__ZNSt3__124__put_character_sequenceIcNS_11char_traitsIcEEEERNS_13basic_ostreamIT_T0_EES7_PKS4_m
Ltmp36:
Ltmp103:
## BB#15:                               ## %_ZNSt3__1lsINS_11char_traitsIcEEEERNS_13basic_ostreamIcT_EES6_PKc.exit
	##DEBUG_VALUE: main:secondList <- [RBP+-88]
	.loc	14 573 0                ## /Applications/Xcode.app/Contents/Developer/Toolchains/XcodeDefault.xctoolchain/usr/bin/../include/c++/v1/list:573:0
	mov	r13, qword ptr [rbp - 80]
Ltmp104:
	##DEBUG_VALUE: __list_iterator:__p <- R13
	##DEBUG_VALUE: __list_iterator:__p <- R13
	.loc	14 364 0                ## /Applications/Xcode.app/Contents/Developer/Toolchains/XcodeDefault.xctoolchain/usr/bin/../include/c++/v1/list:364:0
	cmp	r13, rbx
	je	LBB2_20
Ltmp105:
## BB#16:
	##DEBUG_VALUE: main:secondList <- [RBP+-88]
	mov	r12, qword ptr [rip + __ZNSt3__14coutE@GOTPCREL]
	lea	r14, qword ptr [rip + L_.str]
	.align	4, 0x90
LBB2_17:                                ## %.lr.ph.i
                                        ## =>This Inner Loop Header: Depth=1
	##DEBUG_VALUE: main:secondList <- [RBP+-88]
	.loc	15 834 0                ## /Applications/Xcode.app/Contents/Developer/Toolchains/XcodeDefault.xctoolchain/usr/bin/../include/c++/v1/algorithm:834:0
	mov	esi, dword ptr [r13 + 16]
Ltmp106:
	##DEBUG_VALUE: printFunc:i <- ESI
Ltmp38:
	mov	rdi, r12
	call	__ZNSt3__113basic_ostreamIcNS_11char_traitsIcEEElsEi
Ltmp39:
Ltmp107:
## BB#18:                               ## %.noexc22
                                        ##   in Loop: Header=BB2_17 Depth=1
Ltmp40:
	##DEBUG_VALUE: main:secondList <- [RBP+-88]
Ltmp108:
	##DEBUG_VALUE: length:__s <- R14
	##DEBUG_VALUE: operator<<<std::__1::char_traits<char> >:__os <- RAX
	mov	edx, 1
	mov	rdi, rax
	mov	rsi, r14
	call	__ZNSt3__124__put_character_sequenceIcNS_11char_traitsIcEEEERNS_13basic_ostreamIT_T0_EES7_PKS4_m
Ltmp109:
Ltmp41:
Ltmp110:
## BB#19:                               ## %.noexc
                                        ##   in Loop: Header=BB2_17 Depth=1
	##DEBUG_VALUE: main:secondList <- [RBP+-88]
	.loc	14 338 0                ## /Applications/Xcode.app/Contents/Developer/Toolchains/XcodeDefault.xctoolchain/usr/bin/../include/c++/v1/list:338:0
	mov	r13, qword ptr [r13 + 8]
Ltmp111:
	.loc	15 833 0                ## /Applications/Xcode.app/Contents/Developer/Toolchains/XcodeDefault.xctoolchain/usr/bin/../include/c++/v1/algorithm:833:0
	cmp	r13, rbx
	jne	LBB2_17
Ltmp112:
LBB2_20:                                ## %_ZNSt3__18for_eachINS_15__list_iteratorIiPvEEPFviEEET0_T_S7_S6_.exit
	##DEBUG_VALUE: main:secondList <- [RBP+-88]
	.loc	14 565 0                ## /Applications/Xcode.app/Contents/Developer/Toolchains/XcodeDefault.xctoolchain/usr/bin/../include/c++/v1/list:565:0
	cmp	qword ptr [rbp - 72], 0
	je	LBB2_23
Ltmp113:
## BB#21:
	##DEBUG_VALUE: main:secondList <- [RBP+-88]
	.loc	14 714 0                ## /Applications/Xcode.app/Contents/Developer/Toolchains/XcodeDefault.xctoolchain/usr/bin/../include/c++/v1/list:714:0
	mov	rax, qword ptr [rbp - 88]
Ltmp114:
	##DEBUG_VALUE: __unlink_nodes:__l <- RAX
	.loc	14 711 0                ## /Applications/Xcode.app/Contents/Developer/Toolchains/XcodeDefault.xctoolchain/usr/bin/../include/c++/v1/list:711:0
	mov	rdi, qword ptr [rbp - 80]
Ltmp115:
	##DEBUG_VALUE: __f <- RDI
	##DEBUG_VALUE: __unlink_nodes:__f <- RDI
	.loc	14 676 0                ## /Applications/Xcode.app/Contents/Developer/Toolchains/XcodeDefault.xctoolchain/usr/bin/../include/c++/v1/list:676:0
	mov	rcx, qword ptr [rax + 8]
	mov	rdx, qword ptr [rdi]
	mov	qword ptr [rdx + 8], rcx
	.loc	14 677 0                ## /Applications/Xcode.app/Contents/Developer/Toolchains/XcodeDefault.xctoolchain/usr/bin/../include/c++/v1/list:677:0
	mov	rax, qword ptr [rax + 8]
Ltmp116:
	mov	qword ptr [rax], rdx
Ltmp117:
	.loc	14 715 0                ## /Applications/Xcode.app/Contents/Developer/Toolchains/XcodeDefault.xctoolchain/usr/bin/../include/c++/v1/list:715:0
	mov	qword ptr [rbp - 72], 0
	.loc	14 716 0                ## /Applications/Xcode.app/Contents/Developer/Toolchains/XcodeDefault.xctoolchain/usr/bin/../include/c++/v1/list:716:0
	cmp	rdi, rbx
	je	LBB2_23
Ltmp118:
	.align	4, 0x90
LBB2_22:                                ## %.lr.ph.i.i.i.i20
                                        ## =>This Inner Loop Header: Depth=1
	##DEBUG_VALUE: main:secondList <- [RBP+-88]
	##DEBUG_VALUE: __n <- RDI
	.loc	14 719 0                ## /Applications/Xcode.app/Contents/Developer/Toolchains/XcodeDefault.xctoolchain/usr/bin/../include/c++/v1/list:719:0
	mov	r14, qword ptr [rdi + 8]
Ltmp119:
	##DEBUG_VALUE: deallocate: <- 1
	##DEBUG_VALUE: deallocate:__n <- 1
	##DEBUG_VALUE: __f <- R14
	.loc	9 1632 0                ## /Applications/Xcode.app/Contents/Developer/Toolchains/XcodeDefault.xctoolchain/usr/bin/../include/c++/v1/memory:1632:0
	call	__ZdlPv
Ltmp120:
	.loc	14 716 0                ## /Applications/Xcode.app/Contents/Developer/Toolchains/XcodeDefault.xctoolchain/usr/bin/../include/c++/v1/list:716:0
	cmp	r14, rbx
	mov	rdi, r14
Ltmp121:
	##DEBUG_VALUE: __f <- RDI
	jne	LBB2_22
Ltmp122:
LBB2_23:                                ## %_ZNSt3__14listIiNS_9allocatorIiEEED1Ev.exit21
	##DEBUG_VALUE: main:secondList <- [RBP+-88]
	.loc	14 565 0                ## /Applications/Xcode.app/Contents/Developer/Toolchains/XcodeDefault.xctoolchain/usr/bin/../include/c++/v1/list:565:0
	cmp	qword ptr [rbp - 48], 0
	je	LBB2_26
Ltmp123:
## BB#24:
	##DEBUG_VALUE: main:secondList <- [RBP+-88]
	.loc	14 714 0                ## /Applications/Xcode.app/Contents/Developer/Toolchains/XcodeDefault.xctoolchain/usr/bin/../include/c++/v1/list:714:0
	mov	rax, qword ptr [rbp - 64]
Ltmp124:
	##DEBUG_VALUE: __unlink_nodes:__l <- RAX
	.loc	14 711 0                ## /Applications/Xcode.app/Contents/Developer/Toolchains/XcodeDefault.xctoolchain/usr/bin/../include/c++/v1/list:711:0
	mov	rdi, qword ptr [rbp - 56]
Ltmp125:
	##DEBUG_VALUE: __f <- RDI
	##DEBUG_VALUE: __unlink_nodes:__f <- RDI
	.loc	14 676 0                ## /Applications/Xcode.app/Contents/Developer/Toolchains/XcodeDefault.xctoolchain/usr/bin/../include/c++/v1/list:676:0
	mov	rcx, qword ptr [rax + 8]
	mov	rdx, qword ptr [rdi]
	mov	qword ptr [rdx + 8], rcx
	.loc	14 677 0                ## /Applications/Xcode.app/Contents/Developer/Toolchains/XcodeDefault.xctoolchain/usr/bin/../include/c++/v1/list:677:0
	mov	rax, qword ptr [rax + 8]
Ltmp126:
	mov	qword ptr [rax], rdx
Ltmp127:
	.loc	14 715 0                ## /Applications/Xcode.app/Contents/Developer/Toolchains/XcodeDefault.xctoolchain/usr/bin/../include/c++/v1/list:715:0
	mov	qword ptr [rbp - 48], 0
	.loc	14 716 0                ## /Applications/Xcode.app/Contents/Developer/Toolchains/XcodeDefault.xctoolchain/usr/bin/../include/c++/v1/list:716:0
	cmp	rdi, r15
	je	LBB2_26
Ltmp128:
	.align	4, 0x90
LBB2_25:                                ## %.lr.ph.i.i.i.i17
                                        ## =>This Inner Loop Header: Depth=1
	##DEBUG_VALUE: main:secondList <- [RBP+-88]
	##DEBUG_VALUE: __n <- RDI
	.loc	14 719 0                ## /Applications/Xcode.app/Contents/Developer/Toolchains/XcodeDefault.xctoolchain/usr/bin/../include/c++/v1/list:719:0
	mov	r14, qword ptr [rdi + 8]
	##DEBUG_VALUE: deallocate: <- 1
	##DEBUG_VALUE: deallocate:__n <- 1
Ltmp129:
	##DEBUG_VALUE: __f <- R14
	.loc	9 1632 0                ## /Applications/Xcode.app/Contents/Developer/Toolchains/XcodeDefault.xctoolchain/usr/bin/../include/c++/v1/memory:1632:0
	call	__ZdlPv
Ltmp130:
	.loc	14 716 0                ## /Applications/Xcode.app/Contents/Developer/Toolchains/XcodeDefault.xctoolchain/usr/bin/../include/c++/v1/list:716:0
	cmp	r14, r15
	mov	rdi, r14
Ltmp131:
	##DEBUG_VALUE: __f <- RDI
	jne	LBB2_25
Ltmp132:
LBB2_26:                                ## %_ZNSt3__14listIiNS_9allocatorIiEEED1Ev.exit18
	##DEBUG_VALUE: main:secondList <- [RBP+-88]
	xor	eax, eax
	.loc	1 31 0                  ## transform.cpp:31:0
	add	rsp, 56
	pop	rbx
	pop	r12
	pop	r13
	pop	r14
	pop	r15
	pop	rbp
Ltmp133:
	ret
LBB2_29:                                ## %.nonloopexit.loopexit
Ltmp34:
	jmp	LBB2_31
LBB2_28:                                ## %.loopexit
Ltmp42:
LBB2_31:                                ## %.nonloopexit
Ltmp134:
	##DEBUG_VALUE: main:secondList <- [RBP+-88]
	mov	r14, rax
Ltmp135:
	##DEBUG_VALUE: __l <- RBX
	##DEBUG_VALUE: main:secondList <- [RBP+-88]
	.loc	14 565 0                ## /Applications/Xcode.app/Contents/Developer/Toolchains/XcodeDefault.xctoolchain/usr/bin/../include/c++/v1/list:565:0
	cmp	qword ptr [rbp - 72], 0
	je	LBB2_34
Ltmp136:
## BB#32:
	##DEBUG_VALUE: __l <- RBX
	##DEBUG_VALUE: main:secondList <- [RBP+-88]
	.loc	14 714 0                ## /Applications/Xcode.app/Contents/Developer/Toolchains/XcodeDefault.xctoolchain/usr/bin/../include/c++/v1/list:714:0
	mov	rax, qword ptr [rbp - 88]
Ltmp137:
	##DEBUG_VALUE: __unlink_nodes:__l <- RAX
	.loc	14 711 0                ## /Applications/Xcode.app/Contents/Developer/Toolchains/XcodeDefault.xctoolchain/usr/bin/../include/c++/v1/list:711:0
	mov	rdi, qword ptr [rbp - 80]
Ltmp138:
	##DEBUG_VALUE: __f <- RDI
	##DEBUG_VALUE: __unlink_nodes:__f <- RDI
	.loc	14 676 0                ## /Applications/Xcode.app/Contents/Developer/Toolchains/XcodeDefault.xctoolchain/usr/bin/../include/c++/v1/list:676:0
	mov	rcx, qword ptr [rax + 8]
	mov	rdx, qword ptr [rdi]
	mov	qword ptr [rdx + 8], rcx
	.loc	14 677 0                ## /Applications/Xcode.app/Contents/Developer/Toolchains/XcodeDefault.xctoolchain/usr/bin/../include/c++/v1/list:677:0
	mov	rax, qword ptr [rax + 8]
Ltmp139:
	mov	qword ptr [rax], rdx
Ltmp140:
	.loc	14 715 0                ## /Applications/Xcode.app/Contents/Developer/Toolchains/XcodeDefault.xctoolchain/usr/bin/../include/c++/v1/list:715:0
	mov	qword ptr [rbp - 72], 0
	.loc	14 716 0                ## /Applications/Xcode.app/Contents/Developer/Toolchains/XcodeDefault.xctoolchain/usr/bin/../include/c++/v1/list:716:0
	cmp	rdi, rbx
	je	LBB2_34
Ltmp141:
	.align	4, 0x90
LBB2_33:                                ## %.lr.ph.i.i.i.i14
                                        ## =>This Inner Loop Header: Depth=1
	##DEBUG_VALUE: main:secondList <- [RBP+-88]
	##DEBUG_VALUE: __n <- RDI
	.loc	14 719 0                ## /Applications/Xcode.app/Contents/Developer/Toolchains/XcodeDefault.xctoolchain/usr/bin/../include/c++/v1/list:719:0
	mov	r12, qword ptr [rdi + 8]
	##DEBUG_VALUE: deallocate: <- 1
	##DEBUG_VALUE: deallocate:__n <- 1
Ltmp142:
	##DEBUG_VALUE: __f <- R12
	.loc	9 1632 0                ## /Applications/Xcode.app/Contents/Developer/Toolchains/XcodeDefault.xctoolchain/usr/bin/../include/c++/v1/memory:1632:0
	call	__ZdlPv
Ltmp143:
	.loc	14 716 0                ## /Applications/Xcode.app/Contents/Developer/Toolchains/XcodeDefault.xctoolchain/usr/bin/../include/c++/v1/list:716:0
	cmp	r12, rbx
	mov	rdi, r12
Ltmp144:
	##DEBUG_VALUE: __f <- RDI
	jne	LBB2_33
	jmp	LBB2_34
Ltmp145:
LBB2_27:
Ltmp27:
	mov	r14, rax
LBB2_34:                                ## %_ZNSt3__14listIiNS_9allocatorIiEEED1Ev.exit15
Ltmp146:
	##DEBUG_VALUE: __l <- R15
	.loc	14 565 0                ## /Applications/Xcode.app/Contents/Developer/Toolchains/XcodeDefault.xctoolchain/usr/bin/../include/c++/v1/list:565:0
	cmp	qword ptr [rbp - 48], 0
	je	LBB2_37
Ltmp147:
## BB#35:
	##DEBUG_VALUE: __l <- R15
	.loc	14 714 0                ## /Applications/Xcode.app/Contents/Developer/Toolchains/XcodeDefault.xctoolchain/usr/bin/../include/c++/v1/list:714:0
	mov	rax, qword ptr [rbp - 64]
Ltmp148:
	##DEBUG_VALUE: __unlink_nodes:__l <- RAX
	.loc	14 711 0                ## /Applications/Xcode.app/Contents/Developer/Toolchains/XcodeDefault.xctoolchain/usr/bin/../include/c++/v1/list:711:0
	mov	rdi, qword ptr [rbp - 56]
Ltmp149:
	##DEBUG_VALUE: __f <- RDI
	##DEBUG_VALUE: __unlink_nodes:__f <- RDI
	.loc	14 676 0                ## /Applications/Xcode.app/Contents/Developer/Toolchains/XcodeDefault.xctoolchain/usr/bin/../include/c++/v1/list:676:0
	mov	rcx, qword ptr [rax + 8]
	mov	rdx, qword ptr [rdi]
	mov	qword ptr [rdx + 8], rcx
	.loc	14 677 0                ## /Applications/Xcode.app/Contents/Developer/Toolchains/XcodeDefault.xctoolchain/usr/bin/../include/c++/v1/list:677:0
	mov	rax, qword ptr [rax + 8]
Ltmp150:
	mov	qword ptr [rax], rdx
Ltmp151:
	.loc	14 715 0                ## /Applications/Xcode.app/Contents/Developer/Toolchains/XcodeDefault.xctoolchain/usr/bin/../include/c++/v1/list:715:0
	mov	qword ptr [rbp - 48], 0
	.loc	14 716 0                ## /Applications/Xcode.app/Contents/Developer/Toolchains/XcodeDefault.xctoolchain/usr/bin/../include/c++/v1/list:716:0
	cmp	rdi, r15
	je	LBB2_37
Ltmp152:
	.align	4, 0x90
LBB2_36:                                ## %.lr.ph.i.i.i.i
                                        ## =>This Inner Loop Header: Depth=1
	##DEBUG_VALUE: __n <- RDI
	.loc	14 719 0                ## /Applications/Xcode.app/Contents/Developer/Toolchains/XcodeDefault.xctoolchain/usr/bin/../include/c++/v1/list:719:0
	mov	rbx, qword ptr [rdi + 8]
Ltmp153:
	##DEBUG_VALUE: deallocate: <- 1
	##DEBUG_VALUE: deallocate:__n <- 1
	##DEBUG_VALUE: __f <- RBX
	.loc	9 1632 0                ## /Applications/Xcode.app/Contents/Developer/Toolchains/XcodeDefault.xctoolchain/usr/bin/../include/c++/v1/memory:1632:0
	call	__ZdlPv
Ltmp154:
	.loc	14 716 0                ## /Applications/Xcode.app/Contents/Developer/Toolchains/XcodeDefault.xctoolchain/usr/bin/../include/c++/v1/list:716:0
	cmp	rbx, r15
	mov	rdi, rbx
Ltmp155:
	##DEBUG_VALUE: __f <- RDI
	jne	LBB2_36
Ltmp156:
LBB2_37:                                ## %_ZNSt3__14listIiNS_9allocatorIiEEED1Ev.exit
	mov	rdi, r14
	call	__Unwind_Resume
LBB2_30:                                ## %.nonloopexit.nonloopexit
Ltmp37:
	jmp	LBB2_31
Lfunc_end2:
	.cfi_endproc
Leh_func_end2:
	.section	__TEXT,__gcc_except_tab
	.align	2
GCC_except_table2:
Lexception2:
	.byte	255                     ## @LPStart Encoding = omit
	.byte	155                     ## @TType Encoding = indirect pcrel sdata4
	.asciz	"\320"                  ## @TType base offset
	.byte	3                       ## Call site Encoding = udata4
	.byte	78                      ## Call site table length
Lset0 = Ltmp17-Leh_func_begin2          ## >> Call Site 1 <<
	.long	Lset0
Lset1 = Ltmp26-Ltmp17                   ##   Call between Ltmp17 and Ltmp26
	.long	Lset1
Lset2 = Ltmp27-Leh_func_begin2          ##     jumps to Ltmp27
	.long	Lset2
	.byte	0                       ##   On action: cleanup
Lset3 = Ltmp28-Leh_func_begin2          ## >> Call Site 2 <<
	.long	Lset3
Lset4 = Ltmp29-Ltmp28                   ##   Call between Ltmp28 and Ltmp29
	.long	Lset4
Lset5 = Ltmp37-Leh_func_begin2          ##     jumps to Ltmp37
	.long	Lset5
	.byte	0                       ##   On action: cleanup
Lset6 = Ltmp30-Leh_func_begin2          ## >> Call Site 3 <<
	.long	Lset6
Lset7 = Ltmp33-Ltmp30                   ##   Call between Ltmp30 and Ltmp33
	.long	Lset7
Lset8 = Ltmp34-Leh_func_begin2          ##     jumps to Ltmp34
	.long	Lset8
	.byte	0                       ##   On action: cleanup
Lset9 = Ltmp35-Leh_func_begin2          ## >> Call Site 4 <<
	.long	Lset9
Lset10 = Ltmp36-Ltmp35                  ##   Call between Ltmp35 and Ltmp36
	.long	Lset10
Lset11 = Ltmp37-Leh_func_begin2         ##     jumps to Ltmp37
	.long	Lset11
	.byte	0                       ##   On action: cleanup
Lset12 = Ltmp38-Leh_func_begin2         ## >> Call Site 5 <<
	.long	Lset12
Lset13 = Ltmp41-Ltmp38                  ##   Call between Ltmp38 and Ltmp41
	.long	Lset13
Lset14 = Ltmp42-Leh_func_begin2         ##     jumps to Ltmp42
	.long	Lset14
	.byte	0                       ##   On action: cleanup
Lset15 = Ltmp41-Leh_func_begin2         ## >> Call Site 6 <<
	.long	Lset15
Lset16 = Leh_func_end2-Ltmp41           ##   Call between Ltmp41 and Leh_func_end2
	.long	Lset16
	.long	0                       ##     has no landing pad
	.byte	0                       ##   On action: cleanup
	.align	2

	.section	__TEXT,__textcoal_nt,coalesced,pure_instructions
	.globl	__ZNSt3__14listIiNS_9allocatorIiEEE6resizeEm
	.weak_def_can_be_hidden	__ZNSt3__14listIiNS_9allocatorIiEEE6resizeEm
	.align	4, 0x90
__ZNSt3__14listIiNS_9allocatorIiEEE6resizeEm: ## @_ZNSt3__14listIiNS_9allocatorIiEEE6resizeEm
Lfunc_begin3:
	.loc	14 1778 0               ## /Applications/Xcode.app/Contents/Developer/Toolchains/XcodeDefault.xctoolchain/usr/bin/../include/c++/v1/list:1778:0
	.cfi_startproc
	.cfi_personality 155, ___gxx_personality_v0
Leh_func_begin3:
	.cfi_lsda 16, Lexception3
## BB#0:
	push	rbp
Ltmp169:
	.cfi_def_cfa_offset 16
Ltmp170:
	.cfi_offset rbp, -16
	mov	rbp, rsp
Ltmp171:
	.cfi_def_cfa_register rbp
	push	r15
	push	r14
	push	r13
	push	r12
	push	rbx
	push	rax
Ltmp172:
	.cfi_offset rbx, -56
Ltmp173:
	.cfi_offset r12, -48
Ltmp174:
	.cfi_offset r13, -40
Ltmp175:
	.cfi_offset r14, -32
Ltmp176:
	.cfi_offset r15, -24
	##DEBUG_VALUE: resize:this <- RDI
	##DEBUG_VALUE: resize:__n <- RSI
	mov	r12, rsi
Ltmp177:
	##DEBUG_VALUE: resize:__n <- R12
	mov	r14, rdi
Ltmp178:
	##DEBUG_VALUE: resize:this <- R14
	.loc	14 1779 0 prologue_end  ## /Applications/Xcode.app/Contents/Developer/Toolchains/XcodeDefault.xctoolchain/usr/bin/../include/c++/v1/list:1779:0
	mov	rax, qword ptr [r14 + 16]
	mov	rcx, rax
	sub	rcx, r12
	jbe	LBB3_16
## BB#1:
	##DEBUG_VALUE: resize:this <- R14
	##DEBUG_VALUE: resize:__n <- R12
Ltmp179:
	##DEBUG_VALUE: __iterator:__n <- R12
	.loc	14 1089 0               ## /Applications/Xcode.app/Contents/Developer/Toolchains/XcodeDefault.xctoolchain/usr/bin/../include/c++/v1/list:1089:0
	mov	rdx, rax
	shr	rdx
	cmp	rdx, r12
	jae	LBB3_2
Ltmp180:
## BB#6:
	##DEBUG_VALUE: resize:this <- R14
	##DEBUG_VALUE: prev<std::__1::__list_iterator<int, void *> >:__n <- RCX
	.loc	18 455 0                ## /Applications/Xcode.app/Contents/Developer/Toolchains/XcodeDefault.xctoolchain/usr/bin/../include/c++/v1/iterator:455:0
	mov	rdx, rcx
	neg	rdx
	js	LBB3_7
## BB#9:                                ## %.preheader.i.i.i.i
	##DEBUG_VALUE: resize:this <- R14
	##DEBUG_VALUE: prev<std::__1::__list_iterator<int, void *> >:__n <- RCX
	.loc	18 456 0                ## /Applications/Xcode.app/Contents/Developer/Toolchains/XcodeDefault.xctoolchain/usr/bin/../include/c++/v1/iterator:456:0
	test	rcx, rcx
	jns	LBB3_22
Ltmp181:
## BB#10:
	##DEBUG_VALUE: resize:this <- R14
	.loc	14 0 0                  ## /Applications/Xcode.app/Contents/Developer/Toolchains/XcodeDefault.xctoolchain/usr/bin/../include/c++/v1/list:0:0
	mov	rbx, r14
	.align	4, 0x90
LBB3_11:                                ## %.lr.ph.i.i.i.i
                                        ## =>This Inner Loop Header: Depth=1
	##DEBUG_VALUE: resize:this <- R14
	.loc	14 338 0                ## /Applications/Xcode.app/Contents/Developer/Toolchains/XcodeDefault.xctoolchain/usr/bin/../include/c++/v1/list:338:0
	mov	rbx, qword ptr [rbx + 8]
Ltmp182:
	.loc	18 456 0                ## /Applications/Xcode.app/Contents/Developer/Toolchains/XcodeDefault.xctoolchain/usr/bin/../include/c++/v1/iterator:456:0
	dec	rdx
Ltmp183:
	##DEBUG_VALUE: __advance<std::__1::__list_iterator<int, void *> >:__n <- RDX
	test	rdx, rdx
	jg	LBB3_11
	jmp	LBB3_12
Ltmp184:
LBB3_16:
	##DEBUG_VALUE: resize:this <- R14
	##DEBUG_VALUE: resize:__n <- R12
	jae	LBB3_22
## BB#17:                               ## %_ZNSt3__116allocator_traitsINS_9allocatorINS_11__list_nodeIiPvEEEEE9constructIiEEvRS5_PT_.exit2
	##DEBUG_VALUE: resize:this <- R14
Ltmp185:
	##DEBUG_VALUE: resize:__n <- R12
	.loc	14 1783 0               ## /Applications/Xcode.app/Contents/Developer/Toolchains/XcodeDefault.xctoolchain/usr/bin/../include/c++/v1/list:1783:0
	sub	r12, rax
Ltmp186:
	##DEBUG_VALUE: allocate:__n <- 1
	##DEBUG_VALUE: allocate:__n <- 1
	##DEBUG_VALUE: __ds <- 0
	mov	edi, 24
	.loc	9 1630 0                ## /Applications/Xcode.app/Contents/Developer/Toolchains/XcodeDefault.xctoolchain/usr/bin/../include/c++/v1/memory:1630:0
Ltmp187:
	call	__Znwm
	mov	rbx, rax
Ltmp188:
	##DEBUG_VALUE: unique_ptr:__p <- RBX
	##DEBUG_VALUE: __allocator_destructor:__s <- 1
	##DEBUG_VALUE: __allocator_destructor:__s <- 1
	##DEBUG_VALUE: unique_ptr:__p <- RBX
	##DEBUG_VALUE: move<std::__1::__list_node<int, void *> *>:__t <- RBX
	##DEBUG_VALUE: __compressed_pair:__t1 <- RBX
	##DEBUG_VALUE: __compressed_pair:__t1 <- RBX
	##DEBUG_VALUE: forward<std::__1::__list_node<int, void *> *>:__t <- RBX
	##DEBUG_VALUE: __libcpp_compressed_pair_imp:__t1 <- RBX
	##DEBUG_VALUE: forward<std::__1::__list_node<int, void *> *>:__t <- RBX
	##DEBUG_VALUE: release:__t <- RBX
	##DEBUG_VALUE: __list_iterator:__p <- RBX
	##DEBUG_VALUE: __list_iterator:__p <- RBX
	##DEBUG_VALUE: __link_nodes:__f <- RBX
	.loc	14 1788 0               ## /Applications/Xcode.app/Contents/Developer/Toolchains/XcodeDefault.xctoolchain/usr/bin/../include/c++/v1/list:1788:0
	mov	qword ptr [rbx], 0
	.loc	9 1456 0                ## /Applications/Xcode.app/Contents/Developer/Toolchains/XcodeDefault.xctoolchain/usr/bin/../include/c++/v1/memory:1456:0
Ltmp189:
	mov	dword ptr [rbx + 16], 0
	mov	r13d, 1
Ltmp190:
	##DEBUG_VALUE: __ds <- 1
	.loc	14 1801 0               ## /Applications/Xcode.app/Contents/Developer/Toolchains/XcodeDefault.xctoolchain/usr/bin/../include/c++/v1/list:1801:0
	cmp	r12, 1
                                        ## kill: RAX<def> RBX<kill>
	je	LBB3_21
Ltmp191:
## BB#18:                               ## %.lr.ph.preheader
	##DEBUG_VALUE: resize:this <- R14
	##DEBUG_VALUE: resize:__n <- R12
	mov	r13d, 1
	mov	r15, rbx
	.align	4, 0x90
LBB3_19:                                ## %.lr.ph
                                        ## =>This Inner Loop Header: Depth=1
Ltmp157:
	##DEBUG_VALUE: resize:this <- R14
	##DEBUG_VALUE: resize:__n <- R12
Ltmp192:
	##DEBUG_VALUE: allocate:__n <- 1
	##DEBUG_VALUE: allocate:__n <- 1
	mov	edi, 24
	call	__Znwm
Ltmp158:
## BB#20:                               ## %_ZNSt3__116allocator_traitsINS_9allocatorINS_11__list_nodeIiPvEEEEE9constructIiEEvRS5_PT_.exit
                                        ##   in Loop: Header=BB3_19 Depth=1
	##DEBUG_VALUE: resize:this <- R14
	##DEBUG_VALUE: resize:__n <- R12
Ltmp193:
	##DEBUG_VALUE: release:__t <- RAX
	##DEBUG_VALUE: reset:__p <- RAX
	.loc	9 1456 0                ## /Applications/Xcode.app/Contents/Developer/Toolchains/XcodeDefault.xctoolchain/usr/bin/../include/c++/v1/memory:1456:0
	mov	dword ptr [rax + 16], 0
Ltmp194:
	.loc	14 1805 0               ## /Applications/Xcode.app/Contents/Developer/Toolchains/XcodeDefault.xctoolchain/usr/bin/../include/c++/v1/list:1805:0
	mov	qword ptr [r15 + 8], rax
	.loc	14 1806 0               ## /Applications/Xcode.app/Contents/Developer/Toolchains/XcodeDefault.xctoolchain/usr/bin/../include/c++/v1/list:1806:0
	mov	qword ptr [rax], r15
Ltmp195:
	.loc	14 1801 0               ## /Applications/Xcode.app/Contents/Developer/Toolchains/XcodeDefault.xctoolchain/usr/bin/../include/c++/v1/list:1801:0
	inc	r13
Ltmp196:
	##DEBUG_VALUE: __ds <- R13
	cmp	r12, r13
	mov	r15, rax
	jne	LBB3_19
Ltmp197:
LBB3_21:                                ## %_ZNSt3__110unique_ptrINS_11__list_nodeIiPvEENS_22__allocator_destructorINS_9allocatorIS3_EEEEED1Ev.exit1
	##DEBUG_VALUE: resize:this <- R14
	##DEBUG_VALUE: __ds <- 1
	##DEBUG_VALUE: __link_nodes:__f <- RBX
	##DEBUG_VALUE: __link_nodes:__p <- R14
	##DEBUG_VALUE: __link_nodes:__l <- RAX
	.loc	14 1078 0               ## /Applications/Xcode.app/Contents/Developer/Toolchains/XcodeDefault.xctoolchain/usr/bin/../include/c++/v1/list:1078:0
	mov	rcx, qword ptr [r14]
	mov	qword ptr [rcx + 8], rbx
	.loc	14 1079 0               ## /Applications/Xcode.app/Contents/Developer/Toolchains/XcodeDefault.xctoolchain/usr/bin/../include/c++/v1/list:1079:0
	mov	qword ptr [rbx], rcx
	.loc	14 1080 0               ## /Applications/Xcode.app/Contents/Developer/Toolchains/XcodeDefault.xctoolchain/usr/bin/../include/c++/v1/list:1080:0
	mov	qword ptr [r14], rax
	.loc	14 1081 0               ## /Applications/Xcode.app/Contents/Developer/Toolchains/XcodeDefault.xctoolchain/usr/bin/../include/c++/v1/list:1081:0
	mov	qword ptr [rax + 8], r14
Ltmp198:
	.loc	14 1831 0               ## /Applications/Xcode.app/Contents/Developer/Toolchains/XcodeDefault.xctoolchain/usr/bin/../include/c++/v1/list:1831:0
	add	qword ptr [r14 + 16], r13
	jmp	LBB3_22
Ltmp199:
LBB3_2:
	##DEBUG_VALUE: resize:this <- R14
	##DEBUG_VALUE: resize:__n <- R12
	##DEBUG_VALUE: __iterator:__n <- R12
	##DEBUG_VALUE: begin:this <- R14
	##DEBUG_VALUE: __list_iterator:__p <- RBX
	##DEBUG_VALUE: __list_iterator:__p <- RBX
	##DEBUG_VALUE: __advance<std::__1::__list_iterator<int, void *> >:__n <- R12
	.loc	14 573 0                ## /Applications/Xcode.app/Contents/Developer/Toolchains/XcodeDefault.xctoolchain/usr/bin/../include/c++/v1/list:573:0
	mov	rbx, qword ptr [r14 + 8]
Ltmp200:
	.loc	18 455 0                ## /Applications/Xcode.app/Contents/Developer/Toolchains/XcodeDefault.xctoolchain/usr/bin/../include/c++/v1/iterator:455:0
	test	r12, r12
	js	LBB3_5
Ltmp201:
## BB#3:                                ## %.preheader.i.i.i3.i
	##DEBUG_VALUE: resize:this <- R14
	##DEBUG_VALUE: resize:__n <- R12
	jle	LBB3_12
Ltmp202:
	.align	4, 0x90
LBB3_4:                                 ## %.lr.ph.i.i.i5.i
                                        ## =>This Inner Loop Header: Depth=1
	##DEBUG_VALUE: resize:this <- R14
	.loc	14 338 0                ## /Applications/Xcode.app/Contents/Developer/Toolchains/XcodeDefault.xctoolchain/usr/bin/../include/c++/v1/list:338:0
	mov	rbx, qword ptr [rbx + 8]
Ltmp203:
	.loc	18 456 0                ## /Applications/Xcode.app/Contents/Developer/Toolchains/XcodeDefault.xctoolchain/usr/bin/../include/c++/v1/iterator:456:0
	dec	r12
Ltmp204:
	##DEBUG_VALUE: __advance<std::__1::__list_iterator<int, void *> >:__n <- R12
	test	r12, r12
	jg	LBB3_4
	jmp	LBB3_12
Ltmp205:
	.align	4, 0x90
LBB3_5:                                 ## %.lr.ph5.i.i.i8.i
                                        ## =>This Inner Loop Header: Depth=1
	##DEBUG_VALUE: resize:this <- R14
	.loc	14 351 0                ## /Applications/Xcode.app/Contents/Developer/Toolchains/XcodeDefault.xctoolchain/usr/bin/../include/c++/v1/list:351:0
	mov	rbx, qword ptr [rbx]
Ltmp206:
	.loc	18 459 0                ## /Applications/Xcode.app/Contents/Developer/Toolchains/XcodeDefault.xctoolchain/usr/bin/../include/c++/v1/iterator:459:0
	inc	r12
	jne	LBB3_5
	jmp	LBB3_12
Ltmp207:
LBB3_7:                                 ## %.lr.ph5.i.i.i.i.preheader
	##DEBUG_VALUE: resize:this <- R14
	##DEBUG_VALUE: prev<std::__1::__list_iterator<int, void *> >:__n <- RCX
	##DEBUG_VALUE: end:this <- R14
	.loc	14 0 0                  ## /Applications/Xcode.app/Contents/Developer/Toolchains/XcodeDefault.xctoolchain/usr/bin/../include/c++/v1/list:0:0
	mov	rbx, r14
Ltmp208:
	.align	4, 0x90
LBB3_8:                                 ## %.lr.ph5.i.i.i.i
                                        ## =>This Inner Loop Header: Depth=1
	##DEBUG_VALUE: resize:this <- R14
	.loc	14 351 0                ## /Applications/Xcode.app/Contents/Developer/Toolchains/XcodeDefault.xctoolchain/usr/bin/../include/c++/v1/list:351:0
	mov	rbx, qword ptr [rbx]
Ltmp209:
	.loc	18 459 0                ## /Applications/Xcode.app/Contents/Developer/Toolchains/XcodeDefault.xctoolchain/usr/bin/../include/c++/v1/iterator:459:0
	dec	rcx
	jne	LBB3_8
Ltmp210:
LBB3_12:                                ## %_ZNSt3__14listIiNS_9allocatorIiEEE10__iteratorEm.exit
	##DEBUG_VALUE: resize:this <- R14
	##DEBUG_VALUE: end:this <- R14
	##DEBUG_VALUE: __list_iterator:__p <- R14
	##DEBUG_VALUE: __list_iterator:__p <- R14
	##DEBUG_VALUE: erase:this <- R14
	##DEBUG_VALUE: __unlink_nodes:__f <- RBX
	.loc	14 501 0                ## /Applications/Xcode.app/Contents/Developer/Toolchains/XcodeDefault.xctoolchain/usr/bin/../include/c++/v1/list:501:0
	cmp	rbx, r14
	je	LBB3_22
Ltmp211:
## BB#13:                               ## %.lr.ph.i
	##DEBUG_VALUE: resize:this <- R14
	##DEBUG_VALUE: end:this <- R14
	##DEBUG_VALUE: erase:this <- R14
	##DEBUG_VALUE: __unlink_nodes:__f <- RBX
	.loc	14 1743 0               ## /Applications/Xcode.app/Contents/Developer/Toolchains/XcodeDefault.xctoolchain/usr/bin/../include/c++/v1/list:1743:0
	mov	rcx, qword ptr [r14]
Ltmp212:
	##DEBUG_VALUE: __unlink_nodes:__l <- RCX
	.loc	14 676 0                ## /Applications/Xcode.app/Contents/Developer/Toolchains/XcodeDefault.xctoolchain/usr/bin/../include/c++/v1/list:676:0
	mov	rdx, qword ptr [rcx + 8]
	mov	rsi, qword ptr [rbx]
	mov	qword ptr [rsi + 8], rdx
	.loc	14 677 0                ## /Applications/Xcode.app/Contents/Developer/Toolchains/XcodeDefault.xctoolchain/usr/bin/../include/c++/v1/list:677:0
	mov	rcx, qword ptr [rcx + 8]
Ltmp213:
	mov	qword ptr [rcx], rsi
	jmp	LBB3_14
Ltmp214:
	.align	4, 0x90
LBB3_15:                                ## %._crit_edge
                                        ##   in Loop: Header=BB3_14 Depth=1
	##DEBUG_VALUE: resize:this <- R14
	##DEBUG_VALUE: end:this <- R14
	##DEBUG_VALUE: erase:this <- R14
	##DEBUG_VALUE: __n <- RDI
	.loc	14 1748 0               ## /Applications/Xcode.app/Contents/Developer/Toolchains/XcodeDefault.xctoolchain/usr/bin/../include/c++/v1/list:1748:0
	mov	rax, qword ptr [r14 + 16]
LBB3_14:                                ## =>This Inner Loop Header: Depth=1
Ltmp215:
	##DEBUG_VALUE: resize:this <- R14
	##DEBUG_VALUE: end:this <- R14
	##DEBUG_VALUE: erase:this <- R14
	##DEBUG_VALUE: __n <- RDI
	mov	rdi, rbx
Ltmp216:
	.loc	14 475 0                ## /Applications/Xcode.app/Contents/Developer/Toolchains/XcodeDefault.xctoolchain/usr/bin/../include/c++/v1/list:475:0
	mov	rbx, qword ptr [rdi + 8]
Ltmp217:
	.loc	14 1748 0               ## /Applications/Xcode.app/Contents/Developer/Toolchains/XcodeDefault.xctoolchain/usr/bin/../include/c++/v1/list:1748:0
	dec	rax
	mov	qword ptr [r14 + 16], rax
Ltmp218:
	##DEBUG_VALUE: deallocate: <- 1
	##DEBUG_VALUE: deallocate:__n <- 1
	.loc	9 1632 0                ## /Applications/Xcode.app/Contents/Developer/Toolchains/XcodeDefault.xctoolchain/usr/bin/../include/c++/v1/memory:1632:0
	call	__ZdlPv
Ltmp219:
	.loc	14 501 0                ## /Applications/Xcode.app/Contents/Developer/Toolchains/XcodeDefault.xctoolchain/usr/bin/../include/c++/v1/list:501:0
	cmp	rbx, r14
	jne	LBB3_15
Ltmp220:
LBB3_22:                                ## %_ZNSt3__14listIiNS_9allocatorIiEEE5eraseENS_21__list_const_iteratorIiPvEES6_.exit
	.loc	14 1833 0               ## /Applications/Xcode.app/Contents/Developer/Toolchains/XcodeDefault.xctoolchain/usr/bin/../include/c++/v1/list:1833:0
	add	rsp, 8
	pop	rbx
	pop	r12
	pop	r13
	pop	r14
	pop	r15
	pop	rbp
	ret
LBB3_23:
Ltmp159:
	.loc	14 1810 0               ## /Applications/Xcode.app/Contents/Developer/Toolchains/XcodeDefault.xctoolchain/usr/bin/../include/c++/v1/list:1810:0
Ltmp221:
	mov	rdi, rax
	call	___cxa_begin_catch
Ltmp222:
	.align	4, 0x90
LBB3_24:                                ## =>This Inner Loop Header: Depth=1
	##DEBUG_VALUE: deallocate:__p <- R15
	.loc	14 1816 0               ## /Applications/Xcode.app/Contents/Developer/Toolchains/XcodeDefault.xctoolchain/usr/bin/../include/c++/v1/list:1816:0
	mov	rbx, qword ptr [r15]
Ltmp223:
	##DEBUG_VALUE: deallocate: <- 1
	##DEBUG_VALUE: deallocate:__n <- 1
	##DEBUG_VALUE: __prev <- RBX
	.loc	9 1632 0                ## /Applications/Xcode.app/Contents/Developer/Toolchains/XcodeDefault.xctoolchain/usr/bin/../include/c++/v1/memory:1632:0
	mov	rdi, r15
	call	__ZdlPv
Ltmp224:
	.loc	14 1818 0               ## /Applications/Xcode.app/Contents/Developer/Toolchains/XcodeDefault.xctoolchain/usr/bin/../include/c++/v1/list:1818:0
	test	rbx, rbx
	mov	r15, rbx
Ltmp225:
	##DEBUG_VALUE: __prev <- R15
	jne	LBB3_24
Ltmp226:
## BB#25:
	.loc	14 1826 0               ## /Applications/Xcode.app/Contents/Developer/Toolchains/XcodeDefault.xctoolchain/usr/bin/../include/c++/v1/list:1826:0
Ltmp160:
	call	___cxa_rethrow
Ltmp161:
Ltmp227:
## BB#29:
LBB3_26:
Ltmp162:
	mov	rbx, rax
	.loc	14 1833 0               ## /Applications/Xcode.app/Contents/Developer/Toolchains/XcodeDefault.xctoolchain/usr/bin/../include/c++/v1/list:1833:0
Ltmp163:
	call	___cxa_end_catch
Ltmp164:
## BB#27:                               ## %_ZNSt3__110unique_ptrINS_11__list_nodeIiPvEENS_22__allocator_destructorINS_9allocatorIS3_EEEEED1Ev.exit
	mov	rdi, rbx
	call	__Unwind_Resume
LBB3_28:
Ltmp165:
	mov	rdi, rax
	call	___clang_call_terminate
Ltmp228:
Lfunc_end3:
	.cfi_endproc
Leh_func_end3:
	.section	__TEXT,__gcc_except_tab
	.align	2
GCC_except_table3:
Lexception3:
	.byte	255                     ## @LPStart Encoding = omit
	.byte	155                     ## @TType Encoding = indirect pcrel sdata4
	.asciz	"\326\200\200"          ## @TType base offset
	.byte	3                       ## Call site Encoding = udata4
	.byte	78                      ## Call site table length
Lset17 = Leh_func_begin3-Leh_func_begin3 ## >> Call Site 1 <<
	.long	Lset17
Lset18 = Ltmp157-Leh_func_begin3        ##   Call between Leh_func_begin3 and Ltmp157
	.long	Lset18
	.long	0                       ##     has no landing pad
	.byte	0                       ##   On action: cleanup
Lset19 = Ltmp157-Leh_func_begin3        ## >> Call Site 2 <<
	.long	Lset19
Lset20 = Ltmp158-Ltmp157                ##   Call between Ltmp157 and Ltmp158
	.long	Lset20
Lset21 = Ltmp159-Leh_func_begin3        ##     jumps to Ltmp159
	.long	Lset21
	.byte	1                       ##   On action: 1
Lset22 = Ltmp158-Leh_func_begin3        ## >> Call Site 3 <<
	.long	Lset22
Lset23 = Ltmp160-Ltmp158                ##   Call between Ltmp158 and Ltmp160
	.long	Lset23
	.long	0                       ##     has no landing pad
	.byte	0                       ##   On action: cleanup
Lset24 = Ltmp160-Leh_func_begin3        ## >> Call Site 4 <<
	.long	Lset24
Lset25 = Ltmp161-Ltmp160                ##   Call between Ltmp160 and Ltmp161
	.long	Lset25
Lset26 = Ltmp162-Leh_func_begin3        ##     jumps to Ltmp162
	.long	Lset26
	.byte	0                       ##   On action: cleanup
Lset27 = Ltmp163-Leh_func_begin3        ## >> Call Site 5 <<
	.long	Lset27
Lset28 = Ltmp164-Ltmp163                ##   Call between Ltmp163 and Ltmp164
	.long	Lset28
Lset29 = Ltmp165-Leh_func_begin3        ##     jumps to Ltmp165
	.long	Lset29
	.byte	1                       ##   On action: 1
Lset30 = Ltmp164-Leh_func_begin3        ## >> Call Site 6 <<
	.long	Lset30
Lset31 = Leh_func_end3-Ltmp164          ##   Call between Ltmp164 and Leh_func_end3
	.long	Lset31
	.long	0                       ##     has no landing pad
	.byte	0                       ##   On action: cleanup
	.byte	1                       ## >> Action Record 1 <<
                                        ##   Catch TypeInfo 1
	.byte	0                       ##   No further actions
                                        ## >> Catch TypeInfos <<
	.long	0                       ## TypeInfo 1
	.align	2

	.section	__TEXT,__textcoal_nt,coalesced,pure_instructions
	.private_extern	___clang_call_terminate
	.globl	___clang_call_terminate
	.weak_def_can_be_hidden	___clang_call_terminate
	.align	4, 0x90
___clang_call_terminate:                ## @__clang_call_terminate
	.cfi_startproc
## BB#0:
	push	rbp
Ltmp231:
	.cfi_def_cfa_offset 16
Ltmp232:
	.cfi_offset rbp, -16
	mov	rbp, rsp
Ltmp233:
	.cfi_def_cfa_register rbp
	call	___cxa_begin_catch
	call	__ZSt9terminatev
	.cfi_endproc

	.globl	__ZNSt3__124__put_character_sequenceIcNS_11char_traitsIcEEEERNS_13basic_ostreamIT_T0_EES7_PKS4_m
	.weak_def_can_be_hidden	__ZNSt3__124__put_character_sequenceIcNS_11char_traitsIcEEEERNS_13basic_ostreamIT_T0_EES7_PKS4_m
	.align	4, 0x90
__ZNSt3__124__put_character_sequenceIcNS_11char_traitsIcEEEERNS_13basic_ostreamIT_T0_EES7_PKS4_m: ## @_ZNSt3__124__put_character_sequenceIcNS_11char_traitsIcEEEERNS_13basic_ostreamIT_T0_EES7_PKS4_m
Lfunc_begin5:
	.loc	19 734 0                ## /Applications/Xcode.app/Contents/Developer/Toolchains/XcodeDefault.xctoolchain/usr/bin/../include/c++/v1/ostream:734:0
	.cfi_startproc
	.cfi_personality 155, ___gxx_personality_v0
Leh_func_begin5:
	.cfi_lsda 16, Lexception5
## BB#0:
	push	rbp
Ltmp267:
	.cfi_def_cfa_offset 16
Ltmp268:
	.cfi_offset rbp, -16
	mov	rbp, rsp
Ltmp269:
	.cfi_def_cfa_register rbp
	push	r15
	push	r14
	push	r13
	push	r12
	push	rbx
	sub	rsp, 56
Ltmp270:
	.cfi_offset rbx, -56
Ltmp271:
	.cfi_offset r12, -48
Ltmp272:
	.cfi_offset r13, -40
Ltmp273:
	.cfi_offset r14, -32
Ltmp274:
	.cfi_offset r15, -24
	##DEBUG_VALUE: __put_character_sequence<char, std::__1::char_traits<char> >:__os <- RDI
	##DEBUG_VALUE: __put_character_sequence<char, std::__1::char_traits<char> >:__str <- RSI
	##DEBUG_VALUE: __put_character_sequence<char, std::__1::char_traits<char> >:__len <- RDX
	mov	r14, rdx
Ltmp275:
	##DEBUG_VALUE: __put_character_sequence<char, std::__1::char_traits<char> >:__len <- R14
	mov	r15, rsi
Ltmp276:
	##DEBUG_VALUE: __put_character_sequence<char, std::__1::char_traits<char> >:__str <- R15
	mov	rbx, rdi
Ltmp277:
	##DEBUG_VALUE: __put_character_sequence<char, std::__1::char_traits<char> >:__os <- RBX
	.loc	19 739 0 prologue_end   ## /Applications/Xcode.app/Contents/Developer/Toolchains/XcodeDefault.xctoolchain/usr/bin/../include/c++/v1/ostream:739:0
Ltmp234:
	lea	rdi, qword ptr [rbp - 64]
Ltmp278:
	##DEBUG_VALUE: operator _Bool:this <- RDI
	mov	rsi, rbx
	call	__ZNSt3__113basic_ostreamIcNS_11char_traitsIcEEE6sentryC1ERS3_
Ltmp235:
Ltmp279:
## BB#1:
	##DEBUG_VALUE: __put_character_sequence<char, std::__1::char_traits<char> >:__os <- RBX
	##DEBUG_VALUE: __put_character_sequence<char, std::__1::char_traits<char> >:__str <- R15
	##DEBUG_VALUE: __put_character_sequence<char, std::__1::char_traits<char> >:__len <- R14
	.loc	19 228 0                ## /Applications/Xcode.app/Contents/Developer/Toolchains/XcodeDefault.xctoolchain/usr/bin/../include/c++/v1/ostream:228:0
	cmp	byte ptr [rbp - 64], 0
	je	LBB5_13
Ltmp280:
## BB#2:
	##DEBUG_VALUE: __put_character_sequence<char, std::__1::char_traits<char> >:__os <- RBX
	##DEBUG_VALUE: __put_character_sequence<char, std::__1::char_traits<char> >:__str <- R15
	##DEBUG_VALUE: __put_character_sequence<char, std::__1::char_traits<char> >:__len <- R14
	##DEBUG_VALUE: ostreambuf_iterator:__s <- RBX
	.loc	18 889 0                ## /Applications/Xcode.app/Contents/Developer/Toolchains/XcodeDefault.xctoolchain/usr/bin/../include/c++/v1/iterator:889:0
	mov	rax, qword ptr [rbx]
	mov	r12, qword ptr [rax - 24]
	.loc	3 337 0                 ## /Applications/Xcode.app/Contents/Developer/Toolchains/XcodeDefault.xctoolchain/usr/bin/../include/c++/v1/ios:337:0
Ltmp281:
	mov	rdi, qword ptr [r12 + rbx + 40]
	mov	eax, 176
Ltmp282:
	.loc	19 745 35               ## /Applications/Xcode.app/Contents/Developer/Toolchains/XcodeDefault.xctoolchain/usr/bin/../include/c++/v1/ostream:745:35
	and	eax, dword ptr [r12 + rbx + 8]
	cmp	eax, 32
	mov	r13, r15
	jne	LBB5_4
Ltmp283:
## BB#3:
	##DEBUG_VALUE: __put_character_sequence<char, std::__1::char_traits<char> >:__os <- RBX
	##DEBUG_VALUE: __put_character_sequence<char, std::__1::char_traits<char> >:__str <- R15
	##DEBUG_VALUE: __put_character_sequence<char, std::__1::char_traits<char> >:__len <- R14
	lea	r13, qword ptr [r15 + r14]
LBB5_4:
	##DEBUG_VALUE: __put_character_sequence<char, std::__1::char_traits<char> >:__os <- RBX
	##DEBUG_VALUE: __put_character_sequence<char, std::__1::char_traits<char> >:__str <- R15
	##DEBUG_VALUE: __put_character_sequence<char, std::__1::char_traits<char> >:__len <- R14
	.loc	19 743 0                ## /Applications/Xcode.app/Contents/Developer/Toolchains/XcodeDefault.xctoolchain/usr/bin/../include/c++/v1/ostream:743:0
	lea	r8, qword ptr [rbx + r12]
	.loc	3 742 0                 ## /Applications/Xcode.app/Contents/Developer/Toolchains/XcodeDefault.xctoolchain/usr/bin/../include/c++/v1/ios:742:0
Ltmp284:
	mov	eax, dword ptr [rbx + r12 + 144]
Ltmp285:
	##DEBUG_VALUE: eq_int_type:__c2 <- EAX
	##DEBUG_VALUE: eq_int_type:__c1 <- -1
	.loc	8 679 0                 ## /Applications/Xcode.app/Contents/Developer/Toolchains/XcodeDefault.xctoolchain/usr/bin/../include/c++/v1/string:679:0
	cmp	eax, -1
	jne	LBB5_10
Ltmp286:
## BB#5:
Ltmp236:
	##DEBUG_VALUE: __put_character_sequence<char, std::__1::char_traits<char> >:__os <- RBX
	##DEBUG_VALUE: __put_character_sequence<char, std::__1::char_traits<char> >:__str <- R15
	##DEBUG_VALUE: __put_character_sequence<char, std::__1::char_traits<char> >:__len <- R14
Ltmp287:
	##DEBUG_VALUE: widen:__c <- 32
	mov	qword ptr [rbp - 72], rdi ## 8-byte Spill
	lea	rdi, qword ptr [rbp - 48]
Ltmp288:
	##DEBUG_VALUE: use_facet<std::__1::ctype<char> >:__l <- RDI
	mov	rsi, r8
	mov	qword ptr [rbp - 80], r8 ## 8-byte Spill
	call	__ZNKSt3__18ios_base6getlocEv
Ltmp237:
Ltmp289:
## BB#6:                                ## %.noexc
Ltmp238:
	##DEBUG_VALUE: __put_character_sequence<char, std::__1::char_traits<char> >:__os <- RBX
	##DEBUG_VALUE: __put_character_sequence<char, std::__1::char_traits<char> >:__str <- R15
	##DEBUG_VALUE: __put_character_sequence<char, std::__1::char_traits<char> >:__len <- R14
	mov	rsi, qword ptr [rip + __ZNSt3__15ctypeIcE2idE@GOTPCREL]
	lea	rdi, qword ptr [rbp - 48]
	call	__ZNKSt3__16locale9use_facetERNS0_2idE
Ltmp239:
## BB#7:
	##DEBUG_VALUE: __put_character_sequence<char, std::__1::char_traits<char> >:__os <- RBX
	##DEBUG_VALUE: __put_character_sequence<char, std::__1::char_traits<char> >:__str <- R15
	##DEBUG_VALUE: __put_character_sequence<char, std::__1::char_traits<char> >:__len <- R14
Ltmp290:
	##DEBUG_VALUE: widen:this <- RAX
	##DEBUG_VALUE: widen:__c <- 32
	.loc	7 571 0                 ## /Applications/Xcode.app/Contents/Developer/Toolchains/XcodeDefault.xctoolchain/usr/bin/../include/c++/v1/__locale:571:0
	mov	rcx, qword ptr [rax]
	mov	rcx, qword ptr [rcx + 56]
Ltmp240:
	mov	esi, 32
	mov	rdi, rax
	call	rcx
Ltmp291:
	mov	byte ptr [rbp - 81], al ## 1-byte Spill
Ltmp241:
Ltmp292:
## BB#8:                                ## %_ZNKSt3__19basic_iosIcNS_11char_traitsIcEEE5widenEc.exit.i
Ltmp246:
	##DEBUG_VALUE: __put_character_sequence<char, std::__1::char_traits<char> >:__os <- RBX
	##DEBUG_VALUE: __put_character_sequence<char, std::__1::char_traits<char> >:__str <- R15
	##DEBUG_VALUE: __put_character_sequence<char, std::__1::char_traits<char> >:__len <- R14
	lea	rdi, qword ptr [rbp - 48]
	call	__ZNSt3__16localeD1Ev
Ltmp247:
## BB#9:                                ## %.noexc1
	##DEBUG_VALUE: __put_character_sequence<char, std::__1::char_traits<char> >:__os <- RBX
	##DEBUG_VALUE: __put_character_sequence<char, std::__1::char_traits<char> >:__str <- R15
	##DEBUG_VALUE: __put_character_sequence<char, std::__1::char_traits<char> >:__len <- R14
	.loc	3 743 0                 ## /Applications/Xcode.app/Contents/Developer/Toolchains/XcodeDefault.xctoolchain/usr/bin/../include/c++/v1/ios:743:0
	movsx	eax, byte ptr [rbp - 81] ## 1-byte Folded Reload
	mov	dword ptr [rbx + r12 + 144], eax
	mov	rdi, qword ptr [rbp - 72] ## 8-byte Reload
	mov	r8, qword ptr [rbp - 80] ## 8-byte Reload
Ltmp293:
LBB5_10:
	##DEBUG_VALUE: __put_character_sequence<char, std::__1::char_traits<char> >:__os <- RBX
	##DEBUG_VALUE: __put_character_sequence<char, std::__1::char_traits<char> >:__str <- R15
	##DEBUG_VALUE: __put_character_sequence<char, std::__1::char_traits<char> >:__len <- R14
	.loc	19 743 0                ## /Applications/Xcode.app/Contents/Developer/Toolchains/XcodeDefault.xctoolchain/usr/bin/../include/c++/v1/ostream:743:0
	add	r14, r15
Ltmp294:
Ltmp248:
	movsx	r9d, al
	mov	rsi, r15
	mov	rdx, r13
	mov	rcx, r14
	call	__ZNSt3__116__pad_and_outputIcNS_11char_traitsIcEEEENS_19ostreambuf_iteratorIT_T0_EES6_PKS4_S8_S8_RNS_8ios_baseES4_
Ltmp249:
Ltmp295:
## BB#11:
	##DEBUG_VALUE: __put_character_sequence<char, std::__1::char_traits<char> >:__os <- RBX
	test	rax, rax
	jne	LBB5_13
## BB#12:
	##DEBUG_VALUE: __put_character_sequence<char, std::__1::char_traits<char> >:__os <- RBX
	.loc	19 751 0                ## /Applications/Xcode.app/Contents/Developer/Toolchains/XcodeDefault.xctoolchain/usr/bin/../include/c++/v1/ostream:751:0
	mov	rax, qword ptr [rbx]
	mov	rax, qword ptr [rax - 24]
	lea	rdi, qword ptr [rbx + rax]
Ltmp296:
	##DEBUG_VALUE: setstate:__state <- 5
	##DEBUG_VALUE: setstate:this <- RDI
	##DEBUG_VALUE: setstate:__state <- 5
	.loc	3 524 0                 ## /Applications/Xcode.app/Contents/Developer/Toolchains/XcodeDefault.xctoolchain/usr/bin/../include/c++/v1/ios:524:0
	mov	esi, dword ptr [rbx + rax + 32]
	or	esi, 5
Ltmp250:
	call	__ZNSt3__18ios_base5clearEj
Ltmp251:
Ltmp297:
LBB5_13:                                ## %_ZNSt3__19basic_iosIcNS_11char_traitsIcEEE8setstateEj.exit
	.loc	19 754 0                ## /Applications/Xcode.app/Contents/Developer/Toolchains/XcodeDefault.xctoolchain/usr/bin/../include/c++/v1/ostream:754:0
Ltmp255:
	##DEBUG_VALUE: __put_character_sequence<char, std::__1::char_traits<char> >:__os <- RBX
	lea	rdi, qword ptr [rbp - 64]
	call	__ZNSt3__113basic_ostreamIcNS_11char_traitsIcEEE6sentryD1Ev
Ltmp256:
Ltmp298:
LBB5_21:
	.loc	19 760 0                ## /Applications/Xcode.app/Contents/Developer/Toolchains/XcodeDefault.xctoolchain/usr/bin/../include/c++/v1/ostream:760:0
	mov	rax, rbx
	add	rsp, 56
	pop	rbx
	pop	r12
	pop	r13
	pop	r14
	pop	r15
	pop	rbp
	ret
LBB5_14:
Ltmp242:
Ltmp299:
	##DEBUG_VALUE: __put_character_sequence<char, std::__1::char_traits<char> >:__os <- RBX
	mov	r14, rax
	.loc	3 735 0                 ## /Applications/Xcode.app/Contents/Developer/Toolchains/XcodeDefault.xctoolchain/usr/bin/../include/c++/v1/ios:735:0
Ltmp300:
Ltmp243:
	lea	rax, qword ptr [rbp - 48]
	mov	rdi, rax
	call	__ZNSt3__16localeD1Ev
Ltmp244:
	jmp	LBB5_17
Ltmp301:
LBB5_15:
Ltmp245:
	mov	rdi, rax
	call	___clang_call_terminate
Ltmp302:
LBB5_16:
Ltmp252:
Ltmp303:
	##DEBUG_VALUE: __put_character_sequence<char, std::__1::char_traits<char> >:__os <- RBX
	mov	r14, rax
LBB5_17:                                ## %.body
	.loc	19 761 0                ## /Applications/Xcode.app/Contents/Developer/Toolchains/XcodeDefault.xctoolchain/usr/bin/../include/c++/v1/ostream:761:0
Ltmp253:
	##DEBUG_VALUE: __put_character_sequence<char, std::__1::char_traits<char> >:__os <- RBX
	lea	rax, qword ptr [rbp - 64]
	mov	rdi, rax
	call	__ZNSt3__113basic_ostreamIcNS_11char_traitsIcEEE6sentryD1Ev
Ltmp254:
	jmp	LBB5_19
LBB5_18:
Ltmp257:
Ltmp304:
	##DEBUG_VALUE: __put_character_sequence<char, std::__1::char_traits<char> >:__os <- RBX
	mov	r14, rax
Ltmp305:
LBB5_19:
	.loc	19 754 0                ## /Applications/Xcode.app/Contents/Developer/Toolchains/XcodeDefault.xctoolchain/usr/bin/../include/c++/v1/ostream:754:0
	mov	rdi, r14
	call	___cxa_begin_catch
	.loc	19 757 0                ## /Applications/Xcode.app/Contents/Developer/Toolchains/XcodeDefault.xctoolchain/usr/bin/../include/c++/v1/ostream:757:0
Ltmp306:
	mov	rax, qword ptr [rbx]
	mov	rcx, rbx
	add	rcx, qword ptr [rax - 24]
Ltmp258:
	mov	rdi, rcx
	call	__ZNSt3__18ios_base33__set_badbit_and_consider_rethrowEv
Ltmp259:
## BB#20:
	.loc	19 758 0                ## /Applications/Xcode.app/Contents/Developer/Toolchains/XcodeDefault.xctoolchain/usr/bin/../include/c++/v1/ostream:758:0
	call	___cxa_end_catch
	jmp	LBB5_21
Ltmp307:
LBB5_22:
Ltmp260:
	mov	rbx, rax
	.loc	19 761 0                ## /Applications/Xcode.app/Contents/Developer/Toolchains/XcodeDefault.xctoolchain/usr/bin/../include/c++/v1/ostream:761:0
Ltmp261:
	call	___cxa_end_catch
Ltmp262:
## BB#23:
	mov	rdi, rbx
	call	__Unwind_Resume
LBB5_24:
Ltmp263:
	mov	rdi, rax
	call	___clang_call_terminate
Ltmp308:
Lfunc_end5:
	.cfi_endproc
Leh_func_end5:
	.section	__TEXT,__gcc_except_tab
	.align	2
GCC_except_table5:
Lexception5:
	.byte	255                     ## @LPStart Encoding = omit
	.byte	155                     ## @TType Encoding = indirect pcrel sdata4
	.asciz	"\245\201\200\200"      ## @TType base offset
	.byte	3                       ## Call site Encoding = udata4
	.ascii	"\234\001"              ## Call site table length
Lset32 = Ltmp234-Leh_func_begin5        ## >> Call Site 1 <<
	.long	Lset32
Lset33 = Ltmp235-Ltmp234                ##   Call between Ltmp234 and Ltmp235
	.long	Lset33
Lset34 = Ltmp257-Leh_func_begin5        ##     jumps to Ltmp257
	.long	Lset34
	.byte	1                       ##   On action: 1
Lset35 = Ltmp236-Leh_func_begin5        ## >> Call Site 2 <<
	.long	Lset35
Lset36 = Ltmp237-Ltmp236                ##   Call between Ltmp236 and Ltmp237
	.long	Lset36
Lset37 = Ltmp252-Leh_func_begin5        ##     jumps to Ltmp252
	.long	Lset37
	.byte	1                       ##   On action: 1
Lset38 = Ltmp238-Leh_func_begin5        ## >> Call Site 3 <<
	.long	Lset38
Lset39 = Ltmp241-Ltmp238                ##   Call between Ltmp238 and Ltmp241
	.long	Lset39
Lset40 = Ltmp242-Leh_func_begin5        ##     jumps to Ltmp242
	.long	Lset40
	.byte	1                       ##   On action: 1
Lset41 = Ltmp246-Leh_func_begin5        ## >> Call Site 4 <<
	.long	Lset41
Lset42 = Ltmp251-Ltmp246                ##   Call between Ltmp246 and Ltmp251
	.long	Lset42
Lset43 = Ltmp252-Leh_func_begin5        ##     jumps to Ltmp252
	.long	Lset43
	.byte	1                       ##   On action: 1
Lset44 = Ltmp255-Leh_func_begin5        ## >> Call Site 5 <<
	.long	Lset44
Lset45 = Ltmp256-Ltmp255                ##   Call between Ltmp255 and Ltmp256
	.long	Lset45
Lset46 = Ltmp257-Leh_func_begin5        ##     jumps to Ltmp257
	.long	Lset46
	.byte	1                       ##   On action: 1
Lset47 = Ltmp243-Leh_func_begin5        ## >> Call Site 6 <<
	.long	Lset47
Lset48 = Ltmp244-Ltmp243                ##   Call between Ltmp243 and Ltmp244
	.long	Lset48
Lset49 = Ltmp245-Leh_func_begin5        ##     jumps to Ltmp245
	.long	Lset49
	.byte	1                       ##   On action: 1
Lset50 = Ltmp253-Leh_func_begin5        ## >> Call Site 7 <<
	.long	Lset50
Lset51 = Ltmp254-Ltmp253                ##   Call between Ltmp253 and Ltmp254
	.long	Lset51
Lset52 = Ltmp263-Leh_func_begin5        ##     jumps to Ltmp263
	.long	Lset52
	.byte	1                       ##   On action: 1
Lset53 = Ltmp254-Leh_func_begin5        ## >> Call Site 8 <<
	.long	Lset53
Lset54 = Ltmp258-Ltmp254                ##   Call between Ltmp254 and Ltmp258
	.long	Lset54
	.long	0                       ##     has no landing pad
	.byte	0                       ##   On action: cleanup
Lset55 = Ltmp258-Leh_func_begin5        ## >> Call Site 9 <<
	.long	Lset55
Lset56 = Ltmp259-Ltmp258                ##   Call between Ltmp258 and Ltmp259
	.long	Lset56
Lset57 = Ltmp260-Leh_func_begin5        ##     jumps to Ltmp260
	.long	Lset57
	.byte	0                       ##   On action: cleanup
Lset58 = Ltmp259-Leh_func_begin5        ## >> Call Site 10 <<
	.long	Lset58
Lset59 = Ltmp261-Ltmp259                ##   Call between Ltmp259 and Ltmp261
	.long	Lset59
	.long	0                       ##     has no landing pad
	.byte	0                       ##   On action: cleanup
Lset60 = Ltmp261-Leh_func_begin5        ## >> Call Site 11 <<
	.long	Lset60
Lset61 = Ltmp262-Ltmp261                ##   Call between Ltmp261 and Ltmp262
	.long	Lset61
Lset62 = Ltmp263-Leh_func_begin5        ##     jumps to Ltmp263
	.long	Lset62
	.byte	1                       ##   On action: 1
Lset63 = Ltmp262-Leh_func_begin5        ## >> Call Site 12 <<
	.long	Lset63
Lset64 = Leh_func_end5-Ltmp262          ##   Call between Ltmp262 and Leh_func_end5
	.long	Lset64
	.long	0                       ##     has no landing pad
	.byte	0                       ##   On action: cleanup
	.byte	1                       ## >> Action Record 1 <<
                                        ##   Catch TypeInfo 1
	.byte	0                       ##   No further actions
                                        ## >> Catch TypeInfos <<
	.long	0                       ## TypeInfo 1
	.align	2

	.section	__TEXT,__textcoal_nt,coalesced,pure_instructions
	.private_extern	__ZNSt3__116__pad_and_outputIcNS_11char_traitsIcEEEENS_19ostreambuf_iteratorIT_T0_EES6_PKS4_S8_S8_RNS_8ios_baseES4_
	.globl	__ZNSt3__116__pad_and_outputIcNS_11char_traitsIcEEEENS_19ostreambuf_iteratorIT_T0_EES6_PKS4_S8_S8_RNS_8ios_baseES4_
	.weak_def_can_be_hidden	__ZNSt3__116__pad_and_outputIcNS_11char_traitsIcEEEENS_19ostreambuf_iteratorIT_T0_EES6_PKS4_S8_S8_RNS_8ios_baseES4_
	.align	4, 0x90
__ZNSt3__116__pad_and_outputIcNS_11char_traitsIcEEEENS_19ostreambuf_iteratorIT_T0_EES6_PKS4_S8_S8_RNS_8ios_baseES4_: ## @_ZNSt3__116__pad_and_outputIcNS_11char_traitsIcEEEENS_19ostreambuf_iteratorIT_T0_EES6_PKS4_S8_S8_RNS_8ios_baseES4_
Lfunc_begin6:
	.loc	21 1479 0               ## /Applications/Xcode.app/Contents/Developer/Toolchains/XcodeDefault.xctoolchain/usr/bin/../include/c++/v1/locale:1479:0
	.cfi_startproc
	.cfi_personality 155, ___gxx_personality_v0
Leh_func_begin6:
	.cfi_lsda 16, Lexception6
## BB#0:
	push	rbp
Ltmp318:
	.cfi_def_cfa_offset 16
Ltmp319:
	.cfi_offset rbp, -16
	mov	rbp, rsp
Ltmp320:
	.cfi_def_cfa_register rbp
	push	r15
	push	r14
	push	r13
	push	r12
	push	rbx
	sub	rsp, 40
Ltmp321:
	.cfi_offset rbx, -56
Ltmp322:
	.cfi_offset r12, -48
Ltmp323:
	.cfi_offset r13, -40
Ltmp324:
	.cfi_offset r14, -32
Ltmp325:
	.cfi_offset r15, -24
	##DEBUG_VALUE: __pad_and_output<char, std::__1::char_traits<char> >:__ob <- RSI
	##DEBUG_VALUE: __pad_and_output<char, std::__1::char_traits<char> >:__op <- RDX
	##DEBUG_VALUE: __pad_and_output<char, std::__1::char_traits<char> >:__oe <- RCX
	##DEBUG_VALUE: __pad_and_output<char, std::__1::char_traits<char> >:__iob <- R8
	##DEBUG_VALUE: __pad_and_output<char, std::__1::char_traits<char> >:__fl <- R9D
	mov	r13, rcx
Ltmp326:
	##DEBUG_VALUE: __pad_and_output<char, std::__1::char_traits<char> >:__oe <- R13
	mov	rbx, rdi
Ltmp327:
	##DEBUG_VALUE: nullptr_t: <- -1
	##DEBUG_VALUE: nullptr_t: <- -1
	xor	eax, eax
	.loc	21 1480 0 prologue_end  ## /Applications/Xcode.app/Contents/Developer/Toolchains/XcodeDefault.xctoolchain/usr/bin/../include/c++/v1/locale:1480:0
Ltmp328:
	test	rbx, rbx
	je	LBB6_12
Ltmp329:
## BB#1:
	##DEBUG_VALUE: __pad_and_output<char, std::__1::char_traits<char> >:__ob <- RSI
	##DEBUG_VALUE: __pad_and_output<char, std::__1::char_traits<char> >:__op <- RDX
	##DEBUG_VALUE: __pad_and_output<char, std::__1::char_traits<char> >:__oe <- R13
	##DEBUG_VALUE: __pad_and_output<char, std::__1::char_traits<char> >:__iob <- R8
	##DEBUG_VALUE: __pad_and_output<char, std::__1::char_traits<char> >:__fl <- R9D
	.loc	21 1482 0               ## /Applications/Xcode.app/Contents/Developer/Toolchains/XcodeDefault.xctoolchain/usr/bin/../include/c++/v1/locale:1482:0
	mov	rax, r13
	sub	rax, rsi
Ltmp330:
	##DEBUG_VALUE: __sz <- RAX
	##DEBUG_VALUE: width:this <- R8
	.loc	3 499 0                 ## /Applications/Xcode.app/Contents/Developer/Toolchains/XcodeDefault.xctoolchain/usr/bin/../include/c++/v1/ios:499:0
	mov	rcx, qword ptr [r8 + 24]
Ltmp331:
	##DEBUG_VALUE: __ns <- RCX
	xor	r15d, r15d
Ltmp332:
	.loc	21 1485 0               ## /Applications/Xcode.app/Contents/Developer/Toolchains/XcodeDefault.xctoolchain/usr/bin/../include/c++/v1/locale:1485:0
	sub	rcx, rax
Ltmp333:
	.loc	21 1484 0               ## /Applications/Xcode.app/Contents/Developer/Toolchains/XcodeDefault.xctoolchain/usr/bin/../include/c++/v1/locale:1484:0
	cmovg	r15, rcx
Ltmp334:
	##DEBUG_VALUE: basic_string:__n <- R15
	##DEBUG_VALUE: basic_string:__n <- R15
	##DEBUG_VALUE: sputn:__n <- R15
	.loc	21 1488 0               ## /Applications/Xcode.app/Contents/Developer/Toolchains/XcodeDefault.xctoolchain/usr/bin/../include/c++/v1/locale:1488:0
	mov	r12, rdx
	sub	r12, rsi
Ltmp335:
	##DEBUG_VALUE: __np <- R12
	##DEBUG_VALUE: sputn:__n <- R12
	.loc	21 1489 0               ## /Applications/Xcode.app/Contents/Developer/Toolchains/XcodeDefault.xctoolchain/usr/bin/../include/c++/v1/locale:1489:0
	test	r12, r12
	jle	LBB6_3
Ltmp336:
## BB#2:
	##DEBUG_VALUE: __pad_and_output<char, std::__1::char_traits<char> >:__ob <- RSI
	##DEBUG_VALUE: __pad_and_output<char, std::__1::char_traits<char> >:__op <- RDX
	##DEBUG_VALUE: __pad_and_output<char, std::__1::char_traits<char> >:__oe <- R13
	##DEBUG_VALUE: __pad_and_output<char, std::__1::char_traits<char> >:__iob <- R8
	##DEBUG_VALUE: __pad_and_output<char, std::__1::char_traits<char> >:__fl <- R9D
	##DEBUG_VALUE: sputn:__n <- R12
	##DEBUG_VALUE: __np <- R12
	##DEBUG_VALUE: sputn:this <- RBX
	.loc	20 360 0                ## /Applications/Xcode.app/Contents/Developer/Toolchains/XcodeDefault.xctoolchain/usr/bin/../include/c++/v1/streambuf:360:0
	mov	rax, qword ptr [rbx]
Ltmp337:
	##DEBUG_VALUE: sputn:__s <- RSI
	mov	rdi, rbx
	mov	qword ptr [rbp - 80], r13 ## 8-byte Spill
Ltmp338:
	##DEBUG_VALUE: __pad_and_output<char, std::__1::char_traits<char> >:__oe <- [RBP+-80]
	mov	qword ptr [rbp - 72], rdx ## 8-byte Spill
Ltmp339:
	##DEBUG_VALUE: __pad_and_output<char, std::__1::char_traits<char> >:__op <- [RBP+-72]
	mov	rdx, r12
	mov	r14, r8
Ltmp340:
	##DEBUG_VALUE: __pad_and_output<char, std::__1::char_traits<char> >:__iob <- R14
	mov	r13d, r9d
Ltmp341:
	##DEBUG_VALUE: __pad_and_output<char, std::__1::char_traits<char> >:__fl <- R13D
	call	qword ptr [rax + 96]
	mov	r9d, r13d
Ltmp342:
	##DEBUG_VALUE: __pad_and_output<char, std::__1::char_traits<char> >:__fl <- R9D
	mov	rdx, qword ptr [rbp - 72] ## 8-byte Reload
Ltmp343:
	##DEBUG_VALUE: __pad_and_output<char, std::__1::char_traits<char> >:__op <- RDX
	mov	r13, qword ptr [rbp - 80] ## 8-byte Reload
Ltmp344:
	##DEBUG_VALUE: __pad_and_output<char, std::__1::char_traits<char> >:__oe <- R13
	mov	r8, r14
Ltmp345:
	##DEBUG_VALUE: __pad_and_output<char, std::__1::char_traits<char> >:__iob <- R8
	mov	rcx, rax
	xor	eax, eax
Ltmp346:
	.loc	21 1491 0               ## /Applications/Xcode.app/Contents/Developer/Toolchains/XcodeDefault.xctoolchain/usr/bin/../include/c++/v1/locale:1491:0
	cmp	rcx, r12
	jne	LBB6_12
Ltmp347:
LBB6_3:
	##DEBUG_VALUE: __pad_and_output<char, std::__1::char_traits<char> >:__op <- RDX
	##DEBUG_VALUE: __pad_and_output<char, std::__1::char_traits<char> >:__oe <- R13
	##DEBUG_VALUE: __pad_and_output<char, std::__1::char_traits<char> >:__iob <- R8
	##DEBUG_VALUE: __pad_and_output<char, std::__1::char_traits<char> >:__fl <- R9D
	.loc	21 1497 0               ## /Applications/Xcode.app/Contents/Developer/Toolchains/XcodeDefault.xctoolchain/usr/bin/../include/c++/v1/locale:1497:0
	test	r15, r15
	jle	LBB6_9
## BB#4:
	##DEBUG_VALUE: __pad_and_output<char, std::__1::char_traits<char> >:__op <- RDX
	##DEBUG_VALUE: __pad_and_output<char, std::__1::char_traits<char> >:__oe <- R13
	##DEBUG_VALUE: __pad_and_output<char, std::__1::char_traits<char> >:__iob <- R8
Ltmp348:
	##DEBUG_VALUE: __pad_and_output<char, std::__1::char_traits<char> >:__fl <- R9B
	##DEBUG_VALUE: __sp <- [RBP+-64]
	mov	qword ptr [rbp - 72], rdx ## 8-byte Spill
Ltmp349:
	##DEBUG_VALUE: __pad_and_output<char, std::__1::char_traits<char> >:__op <- [RBP+-72]
	mov	r12, r8
Ltmp350:
	##DEBUG_VALUE: __pad_and_output<char, std::__1::char_traits<char> >:__iob <- R12
	##DEBUG_VALUE: basic_string:__c <- R9B
	.loc	8 2098 0                ## /Applications/Xcode.app/Contents/Developer/Toolchains/XcodeDefault.xctoolchain/usr/bin/../include/c++/v1/string:2098:0
	movsx	edx, r9b
	lea	rdi, qword ptr [rbp - 64]
Ltmp351:
	##DEBUG_VALUE: basic_string:this <- RDI
	mov	rsi, r15
	call	__ZNSt3__112basic_stringIcNS_11char_traitsIcEENS_9allocatorIcEEE6__initEmc
Ltmp352:
	.loc	8 1631 0                ## /Applications/Xcode.app/Contents/Developer/Toolchains/XcodeDefault.xctoolchain/usr/bin/../include/c++/v1/string:1631:0
	test	byte ptr [rbp - 64], 1
Ltmp353:
	.loc	8 1725 0                ## /Applications/Xcode.app/Contents/Developer/Toolchains/XcodeDefault.xctoolchain/usr/bin/../include/c++/v1/string:1725:0
	je	LBB6_6
Ltmp354:
## BB#5:
	##DEBUG_VALUE: __pad_and_output<char, std::__1::char_traits<char> >:__op <- [RBP+-72]
	##DEBUG_VALUE: __pad_and_output<char, std::__1::char_traits<char> >:__oe <- R13
	##DEBUG_VALUE: __pad_and_output<char, std::__1::char_traits<char> >:__iob <- R12
	##DEBUG_VALUE: __sp <- [RBP+-64]
	.loc	8 1713 0                ## /Applications/Xcode.app/Contents/Developer/Toolchains/XcodeDefault.xctoolchain/usr/bin/../include/c++/v1/string:1713:0
	mov	rsi, qword ptr [rbp - 48]
	jmp	LBB6_7
LBB6_6:
	##DEBUG_VALUE: __pad_and_output<char, std::__1::char_traits<char> >:__op <- [RBP+-72]
	##DEBUG_VALUE: __pad_and_output<char, std::__1::char_traits<char> >:__oe <- R13
	##DEBUG_VALUE: __pad_and_output<char, std::__1::char_traits<char> >:__iob <- R12
	##DEBUG_VALUE: __sp <- [RBP+-64]
	.loc	8 1719 0                ## /Applications/Xcode.app/Contents/Developer/Toolchains/XcodeDefault.xctoolchain/usr/bin/../include/c++/v1/string:1719:0
	lea	rsi, qword ptr [rbp - 63]
Ltmp355:
	##DEBUG_VALUE: addressof<const char>:__x <- RSI
	##DEBUG_VALUE: pointer_to:__r <- RSI
LBB6_7:                                 ## %_ZNKSt3__112basic_stringIcNS_11char_traitsIcEENS_9allocatorIcEEE4dataEv.exit
	##DEBUG_VALUE: __pad_and_output<char, std::__1::char_traits<char> >:__op <- [RBP+-72]
	##DEBUG_VALUE: __pad_and_output<char, std::__1::char_traits<char> >:__oe <- R13
	##DEBUG_VALUE: __pad_and_output<char, std::__1::char_traits<char> >:__iob <- R12
	##DEBUG_VALUE: __sp <- [RBP+-64]
	##DEBUG_VALUE: sputn:this <- RBX
	.loc	20 360 0                ## /Applications/Xcode.app/Contents/Developer/Toolchains/XcodeDefault.xctoolchain/usr/bin/../include/c++/v1/streambuf:360:0
	mov	rax, qword ptr [rbx]
	mov	rax, qword ptr [rax + 96]
Ltmp309:
Ltmp356:
	##DEBUG_VALUE: sputn:__s <- RSI
	mov	rdi, rbx
	mov	rdx, r15
	call	rax
	mov	r14, rax
Ltmp310:
Ltmp357:
## BB#8:                                ## %_ZNSt3__115basic_streambufIcNS_11char_traitsIcEEE5sputnEPKcl.exit
	##DEBUG_VALUE: __pad_and_output<char, std::__1::char_traits<char> >:__op <- [RBP+-72]
	##DEBUG_VALUE: __pad_and_output<char, std::__1::char_traits<char> >:__oe <- R13
	##DEBUG_VALUE: __pad_and_output<char, std::__1::char_traits<char> >:__iob <- R12
	##DEBUG_VALUE: __sp <- [RBP+-64]
	lea	rdi, qword ptr [rbp - 64]
	.loc	21 1505 0               ## /Applications/Xcode.app/Contents/Developer/Toolchains/XcodeDefault.xctoolchain/usr/bin/../include/c++/v1/locale:1505:0
	call	__ZNSt3__112basic_stringIcNS_11char_traitsIcEENS_9allocatorIcEEED1Ev
	xor	eax, eax
	.loc	21 1500 0               ## /Applications/Xcode.app/Contents/Developer/Toolchains/XcodeDefault.xctoolchain/usr/bin/../include/c++/v1/locale:1500:0
Ltmp358:
	cmp	r14, r15
	mov	r8, r12
Ltmp359:
	##DEBUG_VALUE: __pad_and_output<char, std::__1::char_traits<char> >:__iob <- R8
	mov	rdx, qword ptr [rbp - 72] ## 8-byte Reload
Ltmp360:
	##DEBUG_VALUE: __pad_and_output<char, std::__1::char_traits<char> >:__op <- RDX
	jne	LBB6_12
Ltmp361:
LBB6_9:
	##DEBUG_VALUE: __pad_and_output<char, std::__1::char_traits<char> >:__op <- RDX
	##DEBUG_VALUE: __pad_and_output<char, std::__1::char_traits<char> >:__oe <- R13
	##DEBUG_VALUE: __pad_and_output<char, std::__1::char_traits<char> >:__iob <- R8
	.loc	21 1506 0               ## /Applications/Xcode.app/Contents/Developer/Toolchains/XcodeDefault.xctoolchain/usr/bin/../include/c++/v1/locale:1506:0
	sub	r13, rdx
Ltmp362:
	##DEBUG_VALUE: sputn:__n <- R13
	##DEBUG_VALUE: __np <- R13
	.loc	21 1507 0               ## /Applications/Xcode.app/Contents/Developer/Toolchains/XcodeDefault.xctoolchain/usr/bin/../include/c++/v1/locale:1507:0
	test	r13, r13
	jle	LBB6_11
## BB#10:
Ltmp363:
	##DEBUG_VALUE: __pad_and_output<char, std::__1::char_traits<char> >:__op <- RDX
	##DEBUG_VALUE: __pad_and_output<char, std::__1::char_traits<char> >:__iob <- R8
	##DEBUG_VALUE: __np <- R13
	##DEBUG_VALUE: sputn:__n <- R13
	##DEBUG_VALUE: sputn:this <- RBX
	.loc	20 360 0                ## /Applications/Xcode.app/Contents/Developer/Toolchains/XcodeDefault.xctoolchain/usr/bin/../include/c++/v1/streambuf:360:0
	mov	rax, qword ptr [rbx]
Ltmp364:
	##DEBUG_VALUE: sputn:__s <- RDX
	mov	rdi, rbx
	mov	rsi, rdx
	mov	rdx, r13
Ltmp365:
	mov	r14, r8
Ltmp366:
	##DEBUG_VALUE: __pad_and_output<char, std::__1::char_traits<char> >:__iob <- R14
	call	qword ptr [rax + 96]
	mov	r8, r14
Ltmp367:
	##DEBUG_VALUE: __pad_and_output<char, std::__1::char_traits<char> >:__iob <- R8
	mov	rcx, rax
	xor	eax, eax
Ltmp368:
	.loc	21 1509 0               ## /Applications/Xcode.app/Contents/Developer/Toolchains/XcodeDefault.xctoolchain/usr/bin/../include/c++/v1/locale:1509:0
	cmp	rcx, r13
	jne	LBB6_12
Ltmp369:
LBB6_11:
	##DEBUG_VALUE: __pad_and_output<char, std::__1::char_traits<char> >:__iob <- R8
	##DEBUG_VALUE: width:__wide <- 0
	##DEBUG_VALUE: width:this <- R8
	.loc	3 507 0                 ## /Applications/Xcode.app/Contents/Developer/Toolchains/XcodeDefault.xctoolchain/usr/bin/../include/c++/v1/ios:507:0
	mov	qword ptr [r8 + 24], 0
	mov	rax, rbx
Ltmp370:
LBB6_12:                                ## %.thread
	.loc	21 1517 0               ## /Applications/Xcode.app/Contents/Developer/Toolchains/XcodeDefault.xctoolchain/usr/bin/../include/c++/v1/locale:1517:0
	add	rsp, 40
	pop	rbx
	pop	r12
	pop	r13
	pop	r14
	pop	r15
	pop	rbp
	ret
LBB6_13:
Ltmp311:
	mov	rbx, rax
	.loc	21 1517 0               ## /Applications/Xcode.app/Contents/Developer/Toolchains/XcodeDefault.xctoolchain/usr/bin/../include/c++/v1/locale:1517:0
Ltmp371:
Ltmp312:
	lea	rax, qword ptr [rbp - 64]
	mov	rdi, rax
	call	__ZNSt3__112basic_stringIcNS_11char_traitsIcEENS_9allocatorIcEEED1Ev
Ltmp313:
## BB#14:
	mov	rdi, rbx
	call	__Unwind_Resume
LBB6_15:
Ltmp314:
	mov	rdi, rax
	call	___clang_call_terminate
Ltmp372:
Lfunc_end6:
	.cfi_endproc
Leh_func_end6:
	.section	__TEXT,__gcc_except_tab
	.align	2
GCC_except_table6:
Lexception6:
	.byte	255                     ## @LPStart Encoding = omit
	.byte	155                     ## @TType Encoding = indirect pcrel sdata4
	.byte	73                      ## @TType base offset
	.byte	3                       ## Call site Encoding = udata4
	.byte	65                      ## Call site table length
Lset65 = Leh_func_begin6-Leh_func_begin6 ## >> Call Site 1 <<
	.long	Lset65
Lset66 = Ltmp309-Leh_func_begin6        ##   Call between Leh_func_begin6 and Ltmp309
	.long	Lset66
	.long	0                       ##     has no landing pad
	.byte	0                       ##   On action: cleanup
Lset67 = Ltmp309-Leh_func_begin6        ## >> Call Site 2 <<
	.long	Lset67
Lset68 = Ltmp310-Ltmp309                ##   Call between Ltmp309 and Ltmp310
	.long	Lset68
Lset69 = Ltmp311-Leh_func_begin6        ##     jumps to Ltmp311
	.long	Lset69
	.byte	0                       ##   On action: cleanup
Lset70 = Ltmp310-Leh_func_begin6        ## >> Call Site 3 <<
	.long	Lset70
Lset71 = Ltmp312-Ltmp310                ##   Call between Ltmp310 and Ltmp312
	.long	Lset71
	.long	0                       ##     has no landing pad
	.byte	0                       ##   On action: cleanup
Lset72 = Ltmp312-Leh_func_begin6        ## >> Call Site 4 <<
	.long	Lset72
Lset73 = Ltmp313-Ltmp312                ##   Call between Ltmp312 and Ltmp313
	.long	Lset73
Lset74 = Ltmp314-Leh_func_begin6        ##     jumps to Ltmp314
	.long	Lset74
	.byte	1                       ##   On action: 1
Lset75 = Ltmp313-Leh_func_begin6        ## >> Call Site 5 <<
	.long	Lset75
Lset76 = Leh_func_end6-Ltmp313          ##   Call between Ltmp313 and Leh_func_end6
	.long	Lset76
	.long	0                       ##     has no landing pad
	.byte	0                       ##   On action: cleanup
	.byte	1                       ## >> Action Record 1 <<
                                        ##   Catch TypeInfo 1
	.byte	0                       ##   No further actions
                                        ## >> Catch TypeInfos <<
	.long	0                       ## TypeInfo 1
	.align	2

	.section	__TEXT,__cstring,cstring_literals
L_.str:                                 ## @.str
	.asciz	"\n"

L_.str1:                                ## @.str1
	.asciz	"second\n"

	.section	__TEXT,__text,regular,pure_instructions
Ldebug_end0:
	.section	__TEXT,__textcoal_nt,coalesced,pure_instructions
Ldebug_end1: